
bomb:     file format elf32-i386


Disassembly of section .init:

08048760 <_init>:
 8048760:	53                   	push   %ebx
 8048761:	83 ec 08             	sub    $0x8,%esp
 8048764:	e8 47 02 00 00       	call   80489b0 <__x86.get_pc_thunk.bx>
 8048769:	81 c3 97 48 00 00    	add    $0x4897,%ebx
 804876f:	8b 83 fc ff ff ff    	mov    -0x4(%ebx),%eax
 8048775:	85 c0                	test   %eax,%eax
 8048777:	74 05                	je     804877e <_init+0x1e>
 8048779:	e8 f2 01 00 00       	call   8048970 <__sprintf_chk@plt+0x10>
 804877e:	83 c4 08             	add    $0x8,%esp
 8048781:	5b                   	pop    %ebx
 8048782:	c3                   	ret    

Disassembly of section .plt:

08048790 <read@plt-0x10>:
 8048790:	ff 35 04 d0 04 08    	pushl  0x804d004
 8048796:	ff 25 08 d0 04 08    	jmp    *0x804d008
 804879c:	00 00                	add    %al,(%eax)
	...

080487a0 <read@plt>:
 80487a0:	ff 25 0c d0 04 08    	jmp    *0x804d00c
 80487a6:	68 00 00 00 00       	push   $0x0
 80487ab:	e9 e0 ff ff ff       	jmp    8048790 <_init+0x30>

080487b0 <fflush@plt>:
 80487b0:	ff 25 10 d0 04 08    	jmp    *0x804d010
 80487b6:	68 08 00 00 00       	push   $0x8
 80487bb:	e9 d0 ff ff ff       	jmp    8048790 <_init+0x30>

080487c0 <fgets@plt>:
 80487c0:	ff 25 14 d0 04 08    	jmp    *0x804d014
 80487c6:	68 10 00 00 00       	push   $0x10
 80487cb:	e9 c0 ff ff ff       	jmp    8048790 <_init+0x30>

080487d0 <signal@plt>:
 80487d0:	ff 25 18 d0 04 08    	jmp    *0x804d018
 80487d6:	68 18 00 00 00       	push   $0x18
 80487db:	e9 b0 ff ff ff       	jmp    8048790 <_init+0x30>

080487e0 <sleep@plt>:
 80487e0:	ff 25 1c d0 04 08    	jmp    *0x804d01c
 80487e6:	68 20 00 00 00       	push   $0x20
 80487eb:	e9 a0 ff ff ff       	jmp    8048790 <_init+0x30>

080487f0 <alarm@plt>:
 80487f0:	ff 25 20 d0 04 08    	jmp    *0x804d020
 80487f6:	68 28 00 00 00       	push   $0x28
 80487fb:	e9 90 ff ff ff       	jmp    8048790 <_init+0x30>

08048800 <__stack_chk_fail@plt>:
 8048800:	ff 25 24 d0 04 08    	jmp    *0x804d024
 8048806:	68 30 00 00 00       	push   $0x30
 804880b:	e9 80 ff ff ff       	jmp    8048790 <_init+0x30>

08048810 <strcpy@plt>:
 8048810:	ff 25 28 d0 04 08    	jmp    *0x804d028
 8048816:	68 38 00 00 00       	push   $0x38
 804881b:	e9 70 ff ff ff       	jmp    8048790 <_init+0x30>

08048820 <gethostname@plt>:
 8048820:	ff 25 2c d0 04 08    	jmp    *0x804d02c
 8048826:	68 40 00 00 00       	push   $0x40
 804882b:	e9 60 ff ff ff       	jmp    8048790 <_init+0x30>

08048830 <getenv@plt>:
 8048830:	ff 25 30 d0 04 08    	jmp    *0x804d030
 8048836:	68 48 00 00 00       	push   $0x48
 804883b:	e9 50 ff ff ff       	jmp    8048790 <_init+0x30>

08048840 <malloc@plt>:
 8048840:	ff 25 34 d0 04 08    	jmp    *0x804d034
 8048846:	68 50 00 00 00       	push   $0x50
 804884b:	e9 40 ff ff ff       	jmp    8048790 <_init+0x30>

08048850 <puts@plt>:
 8048850:	ff 25 38 d0 04 08    	jmp    *0x804d038
 8048856:	68 58 00 00 00       	push   $0x58
 804885b:	e9 30 ff ff ff       	jmp    8048790 <_init+0x30>

08048860 <__memmove_chk@plt>:
 8048860:	ff 25 3c d0 04 08    	jmp    *0x804d03c
 8048866:	68 60 00 00 00       	push   $0x60
 804886b:	e9 20 ff ff ff       	jmp    8048790 <_init+0x30>

08048870 <exit@plt>:
 8048870:	ff 25 40 d0 04 08    	jmp    *0x804d040
 8048876:	68 68 00 00 00       	push   $0x68
 804887b:	e9 10 ff ff ff       	jmp    8048790 <_init+0x30>

08048880 <__libc_start_main@plt>:
 8048880:	ff 25 44 d0 04 08    	jmp    *0x804d044
 8048886:	68 70 00 00 00       	push   $0x70
 804888b:	e9 00 ff ff ff       	jmp    8048790 <_init+0x30>

08048890 <write@plt>:
 8048890:	ff 25 48 d0 04 08    	jmp    *0x804d048
 8048896:	68 78 00 00 00       	push   $0x78
 804889b:	e9 f0 fe ff ff       	jmp    8048790 <_init+0x30>

080488a0 <strcasecmp@plt>:
 80488a0:	ff 25 4c d0 04 08    	jmp    *0x804d04c
 80488a6:	68 80 00 00 00       	push   $0x80
 80488ab:	e9 e0 fe ff ff       	jmp    8048790 <_init+0x30>

080488b0 <__isoc99_sscanf@plt>:
 80488b0:	ff 25 50 d0 04 08    	jmp    *0x804d050
 80488b6:	68 88 00 00 00       	push   $0x88
 80488bb:	e9 d0 fe ff ff       	jmp    8048790 <_init+0x30>

080488c0 <fopen@plt>:
 80488c0:	ff 25 54 d0 04 08    	jmp    *0x804d054
 80488c6:	68 90 00 00 00       	push   $0x90
 80488cb:	e9 c0 fe ff ff       	jmp    8048790 <_init+0x30>

080488d0 <__errno_location@plt>:
 80488d0:	ff 25 58 d0 04 08    	jmp    *0x804d058
 80488d6:	68 98 00 00 00       	push   $0x98
 80488db:	e9 b0 fe ff ff       	jmp    8048790 <_init+0x30>

080488e0 <__printf_chk@plt>:
 80488e0:	ff 25 5c d0 04 08    	jmp    *0x804d05c
 80488e6:	68 a0 00 00 00       	push   $0xa0
 80488eb:	e9 a0 fe ff ff       	jmp    8048790 <_init+0x30>

080488f0 <socket@plt>:
 80488f0:	ff 25 60 d0 04 08    	jmp    *0x804d060
 80488f6:	68 a8 00 00 00       	push   $0xa8
 80488fb:	e9 90 fe ff ff       	jmp    8048790 <_init+0x30>

08048900 <__fprintf_chk@plt>:
 8048900:	ff 25 64 d0 04 08    	jmp    *0x804d064
 8048906:	68 b0 00 00 00       	push   $0xb0
 804890b:	e9 80 fe ff ff       	jmp    8048790 <_init+0x30>

08048910 <gethostbyname@plt>:
 8048910:	ff 25 68 d0 04 08    	jmp    *0x804d068
 8048916:	68 b8 00 00 00       	push   $0xb8
 804891b:	e9 70 fe ff ff       	jmp    8048790 <_init+0x30>

08048920 <strtol@plt>:
 8048920:	ff 25 6c d0 04 08    	jmp    *0x804d06c
 8048926:	68 c0 00 00 00       	push   $0xc0
 804892b:	e9 60 fe ff ff       	jmp    8048790 <_init+0x30>

08048930 <connect@plt>:
 8048930:	ff 25 70 d0 04 08    	jmp    *0x804d070
 8048936:	68 c8 00 00 00       	push   $0xc8
 804893b:	e9 50 fe ff ff       	jmp    8048790 <_init+0x30>

08048940 <close@plt>:
 8048940:	ff 25 74 d0 04 08    	jmp    *0x804d074
 8048946:	68 d0 00 00 00       	push   $0xd0
 804894b:	e9 40 fe ff ff       	jmp    8048790 <_init+0x30>

08048950 <__ctype_b_loc@plt>:
 8048950:	ff 25 78 d0 04 08    	jmp    *0x804d078
 8048956:	68 d8 00 00 00       	push   $0xd8
 804895b:	e9 30 fe ff ff       	jmp    8048790 <_init+0x30>

08048960 <__sprintf_chk@plt>:
 8048960:	ff 25 7c d0 04 08    	jmp    *0x804d07c
 8048966:	68 e0 00 00 00       	push   $0xe0
 804896b:	e9 20 fe ff ff       	jmp    8048790 <_init+0x30>

Disassembly of section .plt.got:

08048970 <.plt.got>:
 8048970:	ff 25 fc cf 04 08    	jmp    *0x804cffc
 8048976:	66 90                	xchg   %ax,%ax

Disassembly of section .text:

08048980 <_start>:
 8048980:	31 ed                	xor    %ebp,%ebp
 8048982:	5e                   	pop    %esi
 8048983:	89 e1                	mov    %esp,%ecx
 8048985:	83 e4 f0             	and    $0xfffffff0,%esp
 8048988:	50                   	push   %eax
 8048989:	54                   	push   %esp
 804898a:	52                   	push   %edx
 804898b:	68 d0 a1 04 08       	push   $0x804a1d0
 8048990:	68 70 a1 04 08       	push   $0x804a170
 8048995:	51                   	push   %ecx
 8048996:	56                   	push   %esi
 8048997:	68 7b 8a 04 08       	push   $0x8048a7b
 804899c:	e8 df fe ff ff       	call   8048880 <__libc_start_main@plt>
 80489a1:	f4                   	hlt    
 80489a2:	66 90                	xchg   %ax,%ax
 80489a4:	66 90                	xchg   %ax,%ax
 80489a6:	66 90                	xchg   %ax,%ax
 80489a8:	66 90                	xchg   %ax,%ax
 80489aa:	66 90                	xchg   %ax,%ax
 80489ac:	66 90                	xchg   %ax,%ax
 80489ae:	66 90                	xchg   %ax,%ax

080489b0 <__x86.get_pc_thunk.bx>:
 80489b0:	8b 1c 24             	mov    (%esp),%ebx
 80489b3:	c3                   	ret    
 80489b4:	66 90                	xchg   %ax,%ax
 80489b6:	66 90                	xchg   %ax,%ax
 80489b8:	66 90                	xchg   %ax,%ax
 80489ba:	66 90                	xchg   %ax,%ax
 80489bc:	66 90                	xchg   %ax,%ax
 80489be:	66 90                	xchg   %ax,%ax

080489c0 <deregister_tm_clones>:
 80489c0:	b8 c3 d7 04 08       	mov    $0x804d7c3,%eax
 80489c5:	2d c0 d7 04 08       	sub    $0x804d7c0,%eax
 80489ca:	83 f8 06             	cmp    $0x6,%eax
 80489cd:	76 1a                	jbe    80489e9 <deregister_tm_clones+0x29>
 80489cf:	b8 00 00 00 00       	mov    $0x0,%eax
 80489d4:	85 c0                	test   %eax,%eax
 80489d6:	74 11                	je     80489e9 <deregister_tm_clones+0x29>
 80489d8:	55                   	push   %ebp
 80489d9:	89 e5                	mov    %esp,%ebp
 80489db:	83 ec 14             	sub    $0x14,%esp
 80489de:	68 c0 d7 04 08       	push   $0x804d7c0
 80489e3:	ff d0                	call   *%eax
 80489e5:	83 c4 10             	add    $0x10,%esp
 80489e8:	c9                   	leave  
 80489e9:	f3 c3                	repz ret 
 80489eb:	90                   	nop
 80489ec:	8d 74 26 00          	lea    0x0(%esi,%eiz,1),%esi

080489f0 <register_tm_clones>:
 80489f0:	b8 c0 d7 04 08       	mov    $0x804d7c0,%eax
 80489f5:	2d c0 d7 04 08       	sub    $0x804d7c0,%eax
 80489fa:	c1 f8 02             	sar    $0x2,%eax
 80489fd:	89 c2                	mov    %eax,%edx
 80489ff:	c1 ea 1f             	shr    $0x1f,%edx
 8048a02:	01 d0                	add    %edx,%eax
 8048a04:	d1 f8                	sar    %eax
 8048a06:	74 1b                	je     8048a23 <register_tm_clones+0x33>
 8048a08:	ba 00 00 00 00       	mov    $0x0,%edx
 8048a0d:	85 d2                	test   %edx,%edx
 8048a0f:	74 12                	je     8048a23 <register_tm_clones+0x33>
 8048a11:	55                   	push   %ebp
 8048a12:	89 e5                	mov    %esp,%ebp
 8048a14:	83 ec 10             	sub    $0x10,%esp
 8048a17:	50                   	push   %eax
 8048a18:	68 c0 d7 04 08       	push   $0x804d7c0
 8048a1d:	ff d2                	call   *%edx
 8048a1f:	83 c4 10             	add    $0x10,%esp
 8048a22:	c9                   	leave  
 8048a23:	f3 c3                	repz ret 
 8048a25:	8d 74 26 00          	lea    0x0(%esi,%eiz,1),%esi
 8048a29:	8d bc 27 00 00 00 00 	lea    0x0(%edi,%eiz,1),%edi

08048a30 <__do_global_dtors_aux>:
 8048a30:	80 3d e8 d7 04 08 00 	cmpb   $0x0,0x804d7e8
 8048a37:	75 13                	jne    8048a4c <__do_global_dtors_aux+0x1c>
 8048a39:	55                   	push   %ebp
 8048a3a:	89 e5                	mov    %esp,%ebp
 8048a3c:	83 ec 08             	sub    $0x8,%esp
 8048a3f:	e8 7c ff ff ff       	call   80489c0 <deregister_tm_clones>
 8048a44:	c6 05 e8 d7 04 08 01 	movb   $0x1,0x804d7e8
 8048a4b:	c9                   	leave  
 8048a4c:	f3 c3                	repz ret 
 8048a4e:	66 90                	xchg   %ax,%ax

08048a50 <frame_dummy>:
 8048a50:	b8 10 cf 04 08       	mov    $0x804cf10,%eax
 8048a55:	8b 10                	mov    (%eax),%edx
 8048a57:	85 d2                	test   %edx,%edx
 8048a59:	75 05                	jne    8048a60 <frame_dummy+0x10>
 8048a5b:	eb 93                	jmp    80489f0 <register_tm_clones>
 8048a5d:	8d 76 00             	lea    0x0(%esi),%esi
 8048a60:	ba 00 00 00 00       	mov    $0x0,%edx
 8048a65:	85 d2                	test   %edx,%edx
 8048a67:	74 f2                	je     8048a5b <frame_dummy+0xb>
 8048a69:	55                   	push   %ebp
 8048a6a:	89 e5                	mov    %esp,%ebp
 8048a6c:	83 ec 14             	sub    $0x14,%esp
 8048a6f:	50                   	push   %eax
 8048a70:	ff d2                	call   *%edx
 8048a72:	83 c4 10             	add    $0x10,%esp
 8048a75:	c9                   	leave  
 8048a76:	e9 75 ff ff ff       	jmp    80489f0 <register_tm_clones>

08048a7b <main>:
 8048a7b:	8d 4c 24 04          	lea    0x4(%esp),%ecx
 8048a7f:	83 e4 f0             	and    $0xfffffff0,%esp
 8048a82:	ff 71 fc             	pushl  -0x4(%ecx)
 8048a85:	55                   	push   %ebp
 8048a86:	89 e5                	mov    %esp,%ebp
 8048a88:	53                   	push   %ebx
 8048a89:	51                   	push   %ecx
 8048a8a:	8b 01                	mov    (%ecx),%eax
 8048a8c:	8b 59 04             	mov    0x4(%ecx),%ebx
 8048a8f:	83 f8 01             	cmp    $0x1,%eax
 8048a92:	75 0c                	jne    8048aa0 <main+0x25>
 8048a94:	a1 e0 d7 04 08       	mov    0x804d7e0,%eax
 8048a99:	a3 f0 d7 04 08       	mov    %eax,0x804d7f0
 8048a9e:	eb 5b                	jmp    8048afb <main+0x80>
 8048aa0:	83 f8 02             	cmp    $0x2,%eax
 8048aa3:	75 39                	jne    8048ade <main+0x63>
 8048aa5:	83 ec 08             	sub    $0x8,%esp
 8048aa8:	68 f0 a1 04 08       	push   $0x804a1f0
 8048aad:	ff 73 04             	pushl  0x4(%ebx)
 8048ab0:	e8 0b fe ff ff       	call   80488c0 <fopen@plt>
 8048ab5:	a3 f0 d7 04 08       	mov    %eax,0x804d7f0
 8048aba:	83 c4 10             	add    $0x10,%esp
 8048abd:	85 c0                	test   %eax,%eax
 8048abf:	75 3a                	jne    8048afb <main+0x80>
 8048ac1:	ff 73 04             	pushl  0x4(%ebx)
 8048ac4:	ff 33                	pushl  (%ebx)
 8048ac6:	68 f2 a1 04 08       	push   $0x804a1f2
 8048acb:	6a 01                	push   $0x1
 8048acd:	e8 0e fe ff ff       	call   80488e0 <__printf_chk@plt>
 8048ad2:	c7 04 24 08 00 00 00 	movl   $0x8,(%esp)
 8048ad9:	e8 92 fd ff ff       	call   8048870 <exit@plt>
 8048ade:	83 ec 04             	sub    $0x4,%esp
 8048ae1:	ff 33                	pushl  (%ebx)
 8048ae3:	68 0f a2 04 08       	push   $0x804a20f
 8048ae8:	6a 01                	push   $0x1
 8048aea:	e8 f1 fd ff ff       	call   80488e0 <__printf_chk@plt>
 8048aef:	c7 04 24 08 00 00 00 	movl   $0x8,(%esp)
 8048af6:	e8 75 fd ff ff       	call   8048870 <exit@plt>
 8048afb:	e8 28 07 00 00       	call   8049228 <initialize_bomb>
 8048b00:	83 ec 0c             	sub    $0xc,%esp
 8048b03:	68 80 a2 04 08       	push   $0x804a280
 8048b08:	e8 43 fd ff ff       	call   8048850 <puts@plt>
 8048b0d:	c7 04 24 bc a2 04 08 	movl   $0x804a2bc,(%esp)
 8048b14:	e8 37 fd ff ff       	call   8048850 <puts@plt>
 8048b19:	e8 d7 09 00 00       	call   80494f5 <read_line>
 8048b1e:	89 04 24             	mov    %eax,(%esp)
 8048b21:	e8 07 01 00 00       	call   8048c2d <phase_1>
 8048b26:	e8 c3 0a 00 00       	call   80495ee <phase_defused>
 8048b2b:	c7 04 24 e8 a2 04 08 	movl   $0x804a2e8,(%esp)
 8048b32:	e8 19 fd ff ff       	call   8048850 <puts@plt>
 8048b37:	e8 b9 09 00 00       	call   80494f5 <read_line>
 8048b3c:	89 04 24             	mov    %eax,(%esp)
 8048b3f:	e8 45 01 00 00       	call   8048c89 <phase_2>
 8048b44:	e8 a5 0a 00 00       	call   80495ee <phase_defused>
 8048b49:	c7 04 24 29 a2 04 08 	movl   $0x804a229,(%esp)
 8048b50:	e8 fb fc ff ff       	call   8048850 <puts@plt>
 8048b55:	e8 9b 09 00 00       	call   80494f5 <read_line>
 8048b5a:	89 04 24             	mov    %eax,(%esp)
 8048b5d:	e8 48 01 00 00       	call   8048caa <phase_3>
 8048b62:	e8 87 0a 00 00       	call   80495ee <phase_defused>
 8048b67:	c7 04 24 47 a2 04 08 	movl   $0x804a247,(%esp)
 8048b6e:	e8 dd fc ff ff       	call   8048850 <puts@plt>
 8048b73:	e8 7d 09 00 00       	call   80494f5 <read_line>
 8048b78:	89 04 24             	mov    %eax,(%esp)
 8048b7b:	e8 85 01 00 00       	call   8048d05 <phase_4>
 8048b80:	e8 69 0a 00 00       	call   80495ee <phase_defused>
 8048b85:	c7 04 24 14 a3 04 08 	movl   $0x804a314,(%esp)
 8048b8c:	e8 bf fc ff ff       	call   8048850 <puts@plt>
 8048b91:	e8 5f 09 00 00       	call   80494f5 <read_line>
 8048b96:	89 04 24             	mov    %eax,(%esp)
 8048b99:	e8 d2 01 00 00       	call   8048d70 <phase_5>
 8048b9e:	e8 4b 0a 00 00       	call   80495ee <phase_defused>
 8048ba3:	c7 04 24 58 a2 04 08 	movl   $0x804a258,(%esp)
 8048baa:	e8 a1 fc ff ff       	call   8048850 <puts@plt>
 8048baf:	e8 41 09 00 00       	call   80494f5 <read_line>
 8048bb4:	89 04 24             	mov    %eax,(%esp)
 8048bb7:	e8 e5 02 00 00       	call   8048ea1 <phase_6>
 8048bbc:	e8 2d 0a 00 00       	call   80495ee <phase_defused>
 8048bc1:	c7 04 24 38 a3 04 08 	movl   $0x804a338,(%esp)
 8048bc8:	e8 83 fc ff ff       	call   8048850 <puts@plt>
 8048bcd:	e8 23 09 00 00       	call   80494f5 <read_line>
 8048bd2:	89 04 24             	mov    %eax,(%esp)
 8048bd5:	e8 3b 03 00 00       	call   8048f15 <phase_7>
 8048bda:	e8 0f 0a 00 00       	call   80495ee <phase_defused>
 8048bdf:	c7 04 24 58 a3 04 08 	movl   $0x804a358,(%esp)
 8048be6:	e8 65 fc ff ff       	call   8048850 <puts@plt>
 8048beb:	e8 05 09 00 00       	call   80494f5 <read_line>
 8048bf0:	89 04 24             	mov    %eax,(%esp)
 8048bf3:	e8 9d 03 00 00       	call   8048f95 <phase_8>
 8048bf8:	e8 f1 09 00 00       	call   80495ee <phase_defused>
 8048bfd:	c7 04 24 76 a2 04 08 	movl   $0x804a276,(%esp)
 8048c04:	e8 47 fc ff ff       	call   8048850 <puts@plt>
 8048c09:	e8 e7 08 00 00       	call   80494f5 <read_line>
 8048c0e:	89 04 24             	mov    %eax,(%esp)
 8048c11:	e8 d0 04 00 00       	call   80490e6 <phase_9>
 8048c16:	e8 d3 09 00 00       	call   80495ee <phase_defused>
 8048c1b:	83 c4 10             	add    $0x10,%esp
 8048c1e:	b8 00 00 00 00       	mov    $0x0,%eax
 8048c23:	8d 65 f8             	lea    -0x8(%ebp),%esp
 8048c26:	59                   	pop    %ecx
 8048c27:	5b                   	pop    %ebx
 8048c28:	5d                   	pop    %ebp
 8048c29:	8d 61 fc             	lea    -0x4(%ecx),%esp
 8048c2c:	c3                   	ret    

08048c2d <phase_1>:
 8048c2d:	83 ec 20             	sub    $0x20,%esp
 8048c30:	65 a1 14 00 00 00    	mov    %gs:0x14,%eax
 8048c36:	89 44 24 10          	mov    %eax,0x10(%esp)
 8048c3a:	31 c0                	xor    %eax,%eax
 8048c3c:	c7 44 24 0c 00 00 00 	movl   $0x0,0xc(%esp)
 8048c43:	00 
 8048c44:	8d 44 24 0c          	lea    0xc(%esp),%eax
 8048c48:	50                   	push   %eax
 8048c49:	68 c8 a5 04 08       	push   $0x804a5c8
 8048c4e:	ff 74 24 2c          	pushl  0x2c(%esp)
 8048c52:	e8 59 fc ff ff       	call   80488b0 <__isoc99_sscanf@plt>
 8048c57:	83 c4 10             	add    $0x10,%esp
 8048c5a:	83 f8 01             	cmp    $0x1,%eax
 8048c5d:	74 05                	je     8048c64 <phase_1+0x37>
 8048c5f:	e8 19 08 00 00       	call   804947d <explode_bomb>
 8048c64:	81 7c 24 08 ac 01 00 	cmpl   $0x1ac,0x8(%esp)
 8048c6b:	00 
 8048c6c:	74 05                	je     8048c73 <phase_1+0x46>
 8048c6e:	e8 0a 08 00 00       	call   804947d <explode_bomb>
 8048c73:	8b 44 24 0c          	mov    0xc(%esp),%eax
 8048c77:	65 33 05 14 00 00 00 	xor    %gs:0x14,%eax
 8048c7e:	74 05                	je     8048c85 <phase_1+0x58>
 8048c80:	e8 7b fb ff ff       	call   8048800 <__stack_chk_fail@plt>
 8048c85:	83 c4 1c             	add    $0x1c,%esp
 8048c88:	c3                   	ret    

08048c89 <phase_2>:
 8048c89:	83 ec 14             	sub    $0x14,%esp
 8048c8c:	68 94 a3 04 08       	push   $0x804a394
 8048c91:	ff 74 24 1c          	pushl  0x1c(%esp)
 8048c95:	e8 29 05 00 00       	call   80491c3 <strings_not_equal>
 8048c9a:	83 c4 10             	add    $0x10,%esp
 8048c9d:	85 c0                	test   %eax,%eax
 8048c9f:	74 05                	je     8048ca6 <phase_2+0x1d>
 8048ca1:	e8 d7 07 00 00       	call   804947d <explode_bomb>
 8048ca6:	83 c4 0c             	add    $0xc,%esp
 8048ca9:	c3                   	ret    

08048caa <phase_3>:
 8048caa:	83 ec 18             	sub    $0x18,%esp
 8048cad:	68 77 a3 04 08       	push   $0x804a377
 8048cb2:	e8 ed 04 00 00       	call   80491a4 <string_length>
 8048cb7:	83 c0 01             	add    $0x1,%eax
 8048cba:	89 04 24             	mov    %eax,(%esp)
 8048cbd:	e8 7e fb ff ff       	call   8048840 <malloc@plt>
 8048cc2:	c7 00 57 6f 77 21    	movl   $0x21776f57,(%eax)
 8048cc8:	c7 40 04 20 42 72 61 	movl   $0x61724220,0x4(%eax)
 8048ccf:	c7 40 08 7a 69 6c 20 	movl   $0x206c697a,0x8(%eax)
 8048cd6:	c7 40 0c 69 73 20 62 	movl   $0x62207369,0xc(%eax)
 8048cdd:	c7 40 10 69 67 2e 00 	movl   $0x2e6769,0x10(%eax)
 8048ce4:	c6 40 0b 63          	movb   $0x63,0xb(%eax)
 8048ce8:	83 c4 08             	add    $0x8,%esp
 8048ceb:	50                   	push   %eax
 8048cec:	ff 74 24 1c          	pushl  0x1c(%esp)
 8048cf0:	e8 ce 04 00 00       	call   80491c3 <strings_not_equal>
 8048cf5:	83 c4 10             	add    $0x10,%esp
 8048cf8:	85 c0                	test   %eax,%eax
 8048cfa:	74 05                	je     8048d01 <phase_3+0x57>
 8048cfc:	e8 7c 07 00 00       	call   804947d <explode_bomb>
 8048d01:	83 c4 0c             	add    $0xc,%esp
 8048d04:	c3                   	ret    

08048d05 <phase_4>:
 8048d05:	56                   	push   %esi
 8048d06:	53                   	push   %ebx
 8048d07:	83 ec 2c             	sub    $0x2c,%esp
 8048d0a:	65 a1 14 00 00 00    	mov    %gs:0x14,%eax
 8048d10:	89 44 24 24          	mov    %eax,0x24(%esp)
 8048d14:	31 c0                	xor    %eax,%eax
 8048d16:	8d 44 24 0c          	lea    0xc(%esp),%eax
 8048d1a:	50                   	push   %eax
 8048d1b:	ff 74 24 3c          	pushl  0x3c(%esp)
 8048d1f:	e8 96 07 00 00       	call   80494ba <read_six_numbers>
 8048d24:	83 c4 10             	add    $0x10,%esp
 8048d27:	83 7c 24 04 05       	cmpl   $0x5,0x4(%esp)
 8048d2c:	75 07                	jne    8048d35 <phase_4+0x30>
 8048d2e:	83 7c 24 08 08       	cmpl   $0x8,0x8(%esp)
 8048d33:	74 05                	je     8048d3a <phase_4+0x35>
 8048d35:	e8 43 07 00 00       	call   804947d <explode_bomb>
 8048d3a:	8d 5c 24 04          	lea    0x4(%esp),%ebx
 8048d3e:	8d 74 24 14          	lea    0x14(%esp),%esi
 8048d42:	8b 43 04             	mov    0x4(%ebx),%eax
 8048d45:	03 03                	add    (%ebx),%eax
 8048d47:	39 43 08             	cmp    %eax,0x8(%ebx)
 8048d4a:	74 05                	je     8048d51 <phase_4+0x4c>
 8048d4c:	e8 2c 07 00 00       	call   804947d <explode_bomb>
 8048d51:	83 c3 04             	add    $0x4,%ebx
 8048d54:	39 f3                	cmp    %esi,%ebx
 8048d56:	75 ea                	jne    8048d42 <phase_4+0x3d>
 8048d58:	8b 44 24 1c          	mov    0x1c(%esp),%eax
 8048d5c:	65 33 05 14 00 00 00 	xor    %gs:0x14,%eax
 8048d63:	74 05                	je     8048d6a <phase_4+0x65>
 8048d65:	e8 96 fa ff ff       	call   8048800 <__stack_chk_fail@plt>
 8048d6a:	83 c4 24             	add    $0x24,%esp
 8048d6d:	5b                   	pop    %ebx
 8048d6e:	5e                   	pop    %esi
 8048d6f:	c3                   	ret    

08048d70 <phase_5>:
 8048d70:	83 ec 1c             	sub    $0x1c,%esp
 8048d73:	65 a1 14 00 00 00    	mov    %gs:0x14,%eax
 8048d79:	89 44 24 0c          	mov    %eax,0xc(%esp)
 8048d7d:	31 c0                	xor    %eax,%eax
 8048d7f:	8d 44 24 08          	lea    0x8(%esp),%eax
 8048d83:	50                   	push   %eax
 8048d84:	8d 44 24 08          	lea    0x8(%esp),%eax
 8048d88:	50                   	push   %eax
 8048d89:	68 c5 a5 04 08       	push   $0x804a5c5
 8048d8e:	ff 74 24 2c          	pushl  0x2c(%esp)
 8048d92:	e8 19 fb ff ff       	call   80488b0 <__isoc99_sscanf@plt>
 8048d97:	83 c4 10             	add    $0x10,%esp
 8048d9a:	83 f8 01             	cmp    $0x1,%eax
 8048d9d:	7f 05                	jg     8048da4 <phase_5+0x34>
 8048d9f:	e8 d9 06 00 00       	call   804947d <explode_bomb>
 8048da4:	83 7c 24 04 07       	cmpl   $0x7,0x4(%esp)
 8048da9:	77 66                	ja     8048e11 <phase_5+0xa1>
 8048dab:	8b 44 24 04          	mov    0x4(%esp),%eax
 8048daf:	ff 24 85 b4 a3 04 08 	jmp    *0x804a3b4(,%eax,4)
 8048db6:	b8 b6 02 00 00       	mov    $0x2b6,%eax
 8048dbb:	eb 05                	jmp    8048dc2 <phase_5+0x52>
 8048dbd:	b8 00 00 00 00       	mov    $0x0,%eax
 8048dc2:	2d fa 02 00 00       	sub    $0x2fa,%eax
 8048dc7:	eb 05                	jmp    8048dce <phase_5+0x5e>
 8048dc9:	b8 00 00 00 00       	mov    $0x0,%eax
 8048dce:	05 05 01 00 00       	add    $0x105,%eax
 8048dd3:	eb 05                	jmp    8048dda <phase_5+0x6a>
 8048dd5:	b8 00 00 00 00       	mov    $0x0,%eax
 8048dda:	2d 5c 02 00 00       	sub    $0x25c,%eax
 8048ddf:	eb 05                	jmp    8048de6 <phase_5+0x76>
 8048de1:	b8 00 00 00 00       	mov    $0x0,%eax
 8048de6:	05 5c 02 00 00       	add    $0x25c,%eax
 8048deb:	eb 05                	jmp    8048df2 <phase_5+0x82>
 8048ded:	b8 00 00 00 00       	mov    $0x0,%eax
 8048df2:	2d 5c 02 00 00       	sub    $0x25c,%eax
 8048df7:	eb 05                	jmp    8048dfe <phase_5+0x8e>
 8048df9:	b8 00 00 00 00       	mov    $0x0,%eax
 8048dfe:	05 5c 02 00 00       	add    $0x25c,%eax
 8048e03:	eb 05                	jmp    8048e0a <phase_5+0x9a>
 8048e05:	b8 00 00 00 00       	mov    $0x0,%eax
 8048e0a:	2d 5c 02 00 00       	sub    $0x25c,%eax
 8048e0f:	eb 0a                	jmp    8048e1b <phase_5+0xab>
 8048e11:	e8 67 06 00 00       	call   804947d <explode_bomb>
 8048e16:	b8 00 00 00 00       	mov    $0x0,%eax
 8048e1b:	83 7c 24 04 05       	cmpl   $0x5,0x4(%esp)
 8048e20:	7f 06                	jg     8048e28 <phase_5+0xb8>
 8048e22:	3b 44 24 08          	cmp    0x8(%esp),%eax
 8048e26:	74 05                	je     8048e2d <phase_5+0xbd>
 8048e28:	e8 50 06 00 00       	call   804947d <explode_bomb>
 8048e2d:	8b 44 24 0c          	mov    0xc(%esp),%eax
 8048e31:	65 33 05 14 00 00 00 	xor    %gs:0x14,%eax
 8048e38:	74 05                	je     8048e3f <phase_5+0xcf>
 8048e3a:	e8 c1 f9 ff ff       	call   8048800 <__stack_chk_fail@plt>
 8048e3f:	83 c4 1c             	add    $0x1c,%esp
 8048e42:	c3                   	ret    

08048e43 <func6>:
 8048e43:	56                   	push   %esi
 8048e44:	53                   	push   %ebx
 8048e45:	83 ec 04             	sub    $0x4,%esp
 8048e48:	8b 4c 24 10          	mov    0x10(%esp),%ecx
 8048e4c:	8b 5c 24 14          	mov    0x14(%esp),%ebx
 8048e50:	8b 74 24 18          	mov    0x18(%esp),%esi
 8048e54:	89 f0                	mov    %esi,%eax
 8048e56:	29 d8                	sub    %ebx,%eax
 8048e58:	89 c2                	mov    %eax,%edx
 8048e5a:	c1 ea 1f             	shr    $0x1f,%edx
 8048e5d:	01 d0                	add    %edx,%eax
 8048e5f:	d1 f8                	sar    %eax
 8048e61:	8d 14 18             	lea    (%eax,%ebx,1),%edx
 8048e64:	39 ca                	cmp    %ecx,%edx
 8048e66:	7e 15                	jle    8048e7d <func6+0x3a>
 8048e68:	83 ec 04             	sub    $0x4,%esp
 8048e6b:	83 ea 01             	sub    $0x1,%edx
 8048e6e:	52                   	push   %edx
 8048e6f:	53                   	push   %ebx
 8048e70:	51                   	push   %ecx
 8048e71:	e8 cd ff ff ff       	call   8048e43 <func6>
 8048e76:	83 c4 10             	add    $0x10,%esp
 8048e79:	01 c0                	add    %eax,%eax
 8048e7b:	eb 1e                	jmp    8048e9b <func6+0x58>
 8048e7d:	b8 00 00 00 00       	mov    $0x0,%eax
 8048e82:	39 ca                	cmp    %ecx,%edx
 8048e84:	7d 15                	jge    8048e9b <func6+0x58>
 8048e86:	83 ec 04             	sub    $0x4,%esp
 8048e89:	56                   	push   %esi
 8048e8a:	83 c2 01             	add    $0x1,%edx
 8048e8d:	52                   	push   %edx
 8048e8e:	51                   	push   %ecx
 8048e8f:	e8 af ff ff ff       	call   8048e43 <func6>
 8048e94:	83 c4 10             	add    $0x10,%esp
 8048e97:	8d 44 00 01          	lea    0x1(%eax,%eax,1),%eax
 8048e9b:	83 c4 04             	add    $0x4,%esp
 8048e9e:	5b                   	pop    %ebx
 8048e9f:	5e                   	pop    %esi
 8048ea0:	c3                   	ret    

08048ea1 <phase_6>:
 8048ea1:	83 ec 1c             	sub    $0x1c,%esp
 8048ea4:	65 a1 14 00 00 00    	mov    %gs:0x14,%eax
 8048eaa:	89 44 24 0c          	mov    %eax,0xc(%esp)
 8048eae:	31 c0                	xor    %eax,%eax
 8048eb0:	8d 44 24 08          	lea    0x8(%esp),%eax
 8048eb4:	50                   	push   %eax
 8048eb5:	8d 44 24 08          	lea    0x8(%esp),%eax
 8048eb9:	50                   	push   %eax
 8048eba:	68 c5 a5 04 08       	push   $0x804a5c5
 8048ebf:	ff 74 24 2c          	pushl  0x2c(%esp)
 8048ec3:	e8 e8 f9 ff ff       	call   80488b0 <__isoc99_sscanf@plt>
 8048ec8:	83 c4 10             	add    $0x10,%esp
 8048ecb:	83 f8 02             	cmp    $0x2,%eax
 8048ece:	75 07                	jne    8048ed7 <phase_6+0x36>
 8048ed0:	83 7c 24 04 0e       	cmpl   $0xe,0x4(%esp)
 8048ed5:	76 05                	jbe    8048edc <phase_6+0x3b>
 8048ed7:	e8 a1 05 00 00       	call   804947d <explode_bomb>
 8048edc:	83 ec 04             	sub    $0x4,%esp
 8048edf:	6a 0e                	push   $0xe
 8048ee1:	6a 00                	push   $0x0
 8048ee3:	ff 74 24 10          	pushl  0x10(%esp)
 8048ee7:	e8 57 ff ff ff       	call   8048e43 <func6>
 8048eec:	83 c4 10             	add    $0x10,%esp
 8048eef:	85 c0                	test   %eax,%eax
 8048ef1:	75 07                	jne    8048efa <phase_6+0x59>
 8048ef3:	83 7c 24 08 00       	cmpl   $0x0,0x8(%esp)
 8048ef8:	74 05                	je     8048eff <phase_6+0x5e>
 8048efa:	e8 7e 05 00 00       	call   804947d <explode_bomb>
 8048eff:	8b 44 24 0c          	mov    0xc(%esp),%eax
 8048f03:	65 33 05 14 00 00 00 	xor    %gs:0x14,%eax
 8048f0a:	74 05                	je     8048f11 <phase_6+0x70>
 8048f0c:	e8 ef f8 ff ff       	call   8048800 <__stack_chk_fail@plt>
 8048f11:	83 c4 1c             	add    $0x1c,%esp
 8048f14:	c3                   	ret    

08048f15 <phase_7>:
 8048f15:	53                   	push   %ebx
 8048f16:	83 ec 24             	sub    $0x24,%esp
 8048f19:	8b 5c 24 2c          	mov    0x2c(%esp),%ebx
 8048f1d:	65 a1 14 00 00 00    	mov    %gs:0x14,%eax
 8048f23:	89 44 24 18          	mov    %eax,0x18(%esp)
 8048f27:	31 c0                	xor    %eax,%eax
 8048f29:	53                   	push   %ebx
 8048f2a:	e8 75 02 00 00       	call   80491a4 <string_length>
 8048f2f:	83 c4 10             	add    $0x10,%esp
 8048f32:	83 f8 06             	cmp    $0x6,%eax
 8048f35:	74 05                	je     8048f3c <phase_7+0x27>
 8048f37:	e8 41 05 00 00       	call   804947d <explode_bomb>
 8048f3c:	b8 00 00 00 00       	mov    $0x0,%eax
 8048f41:	0f b6 14 03          	movzbl (%ebx,%eax,1),%edx
 8048f45:	83 e2 0f             	and    $0xf,%edx
 8048f48:	0f b6 92 d4 a3 04 08 	movzbl 0x804a3d4(%edx),%edx
 8048f4f:	88 54 04 05          	mov    %dl,0x5(%esp,%eax,1)
 8048f53:	83 c0 01             	add    $0x1,%eax
 8048f56:	83 f8 06             	cmp    $0x6,%eax
 8048f59:	75 e6                	jne    8048f41 <phase_7+0x2c>
 8048f5b:	c6 44 24 0b 00       	movb   $0x0,0xb(%esp)
 8048f60:	83 ec 08             	sub    $0x8,%esp
 8048f63:	68 8b a3 04 08       	push   $0x804a38b
 8048f68:	8d 44 24 11          	lea    0x11(%esp),%eax
 8048f6c:	50                   	push   %eax
 8048f6d:	e8 51 02 00 00       	call   80491c3 <strings_not_equal>
 8048f72:	83 c4 10             	add    $0x10,%esp
 8048f75:	85 c0                	test   %eax,%eax
 8048f77:	74 05                	je     8048f7e <phase_7+0x69>
 8048f79:	e8 ff 04 00 00       	call   804947d <explode_bomb>
 8048f7e:	8b 44 24 0c          	mov    0xc(%esp),%eax
 8048f82:	65 33 05 14 00 00 00 	xor    %gs:0x14,%eax
 8048f89:	74 05                	je     8048f90 <phase_7+0x7b>
 8048f8b:	e8 70 f8 ff ff       	call   8048800 <__stack_chk_fail@plt>
 8048f90:	83 c4 18             	add    $0x18,%esp
 8048f93:	5b                   	pop    %ebx
 8048f94:	c3                   	ret    

08048f95 <phase_8>:
 8048f95:	56                   	push   %esi
 8048f96:	53                   	push   %ebx
 8048f97:	83 ec 4c             	sub    $0x4c,%esp
 8048f9a:	65 a1 14 00 00 00    	mov    %gs:0x14,%eax
 8048fa0:	89 44 24 44          	mov    %eax,0x44(%esp)
 8048fa4:	31 c0                	xor    %eax,%eax
 8048fa6:	8d 44 24 14          	lea    0x14(%esp),%eax
 8048faa:	50                   	push   %eax
 8048fab:	ff 74 24 5c          	pushl  0x5c(%esp)
 8048faf:	e8 06 05 00 00       	call   80494ba <read_six_numbers>
 8048fb4:	83 c4 10             	add    $0x10,%esp
 8048fb7:	be 00 00 00 00       	mov    $0x0,%esi
 8048fbc:	8b 44 b4 0c          	mov    0xc(%esp,%esi,4),%eax
 8048fc0:	83 e8 01             	sub    $0x1,%eax
 8048fc3:	83 f8 05             	cmp    $0x5,%eax
 8048fc6:	76 05                	jbe    8048fcd <phase_8+0x38>
 8048fc8:	e8 b0 04 00 00       	call   804947d <explode_bomb>
 8048fcd:	83 c6 01             	add    $0x1,%esi
 8048fd0:	83 fe 06             	cmp    $0x6,%esi
 8048fd3:	74 1b                	je     8048ff0 <phase_8+0x5b>
 8048fd5:	89 f3                	mov    %esi,%ebx
 8048fd7:	8b 44 9c 0c          	mov    0xc(%esp,%ebx,4),%eax
 8048fdb:	39 44 b4 08          	cmp    %eax,0x8(%esp,%esi,4)
 8048fdf:	75 05                	jne    8048fe6 <phase_8+0x51>
 8048fe1:	e8 97 04 00 00       	call   804947d <explode_bomb>
 8048fe6:	83 c3 01             	add    $0x1,%ebx
 8048fe9:	83 fb 05             	cmp    $0x5,%ebx
 8048fec:	7e e9                	jle    8048fd7 <phase_8+0x42>
 8048fee:	eb cc                	jmp    8048fbc <phase_8+0x27>
 8048ff0:	8d 44 24 0c          	lea    0xc(%esp),%eax
 8048ff4:	8d 5c 24 24          	lea    0x24(%esp),%ebx
 8048ff8:	b9 07 00 00 00       	mov    $0x7,%ecx
 8048ffd:	89 ca                	mov    %ecx,%edx
 8048fff:	2b 10                	sub    (%eax),%edx
 8049001:	89 10                	mov    %edx,(%eax)
 8049003:	83 c0 04             	add    $0x4,%eax
 8049006:	39 c3                	cmp    %eax,%ebx
 8049008:	75 f3                	jne    8048ffd <phase_8+0x68>
 804900a:	bb 00 00 00 00       	mov    $0x0,%ebx
 804900f:	eb 16                	jmp    8049027 <phase_8+0x92>
 8049011:	8b 52 08             	mov    0x8(%edx),%edx
 8049014:	83 c0 01             	add    $0x1,%eax
 8049017:	39 c8                	cmp    %ecx,%eax
 8049019:	75 f6                	jne    8049011 <phase_8+0x7c>
 804901b:	89 54 b4 24          	mov    %edx,0x24(%esp,%esi,4)
 804901f:	83 c3 01             	add    $0x1,%ebx
 8049022:	83 fb 06             	cmp    $0x6,%ebx
 8049025:	74 17                	je     804903e <phase_8+0xa9>
 8049027:	89 de                	mov    %ebx,%esi
 8049029:	8b 4c 9c 0c          	mov    0xc(%esp,%ebx,4),%ecx
 804902d:	b8 01 00 00 00       	mov    $0x1,%eax
 8049032:	ba 54 d1 04 08       	mov    $0x804d154,%edx
 8049037:	83 f9 01             	cmp    $0x1,%ecx
 804903a:	7f d5                	jg     8049011 <phase_8+0x7c>
 804903c:	eb dd                	jmp    804901b <phase_8+0x86>
 804903e:	8b 5c 24 24          	mov    0x24(%esp),%ebx
 8049042:	8d 44 24 24          	lea    0x24(%esp),%eax
 8049046:	8d 74 24 38          	lea    0x38(%esp),%esi
 804904a:	89 d9                	mov    %ebx,%ecx
 804904c:	8b 50 04             	mov    0x4(%eax),%edx
 804904f:	89 51 08             	mov    %edx,0x8(%ecx)
 8049052:	83 c0 04             	add    $0x4,%eax
 8049055:	89 d1                	mov    %edx,%ecx
 8049057:	39 c6                	cmp    %eax,%esi
 8049059:	75 f1                	jne    804904c <phase_8+0xb7>
 804905b:	c7 42 08 00 00 00 00 	movl   $0x0,0x8(%edx)
 8049062:	be 05 00 00 00       	mov    $0x5,%esi
 8049067:	8b 43 08             	mov    0x8(%ebx),%eax
 804906a:	8b 00                	mov    (%eax),%eax
 804906c:	39 03                	cmp    %eax,(%ebx)
 804906e:	7d 05                	jge    8049075 <phase_8+0xe0>
 8049070:	e8 08 04 00 00       	call   804947d <explode_bomb>
 8049075:	8b 5b 08             	mov    0x8(%ebx),%ebx
 8049078:	83 ee 01             	sub    $0x1,%esi
 804907b:	75 ea                	jne    8049067 <phase_8+0xd2>
 804907d:	8b 44 24 3c          	mov    0x3c(%esp),%eax
 8049081:	65 33 05 14 00 00 00 	xor    %gs:0x14,%eax
 8049088:	74 05                	je     804908f <phase_8+0xfa>
 804908a:	e8 71 f7 ff ff       	call   8048800 <__stack_chk_fail@plt>
 804908f:	83 c4 44             	add    $0x44,%esp
 8049092:	5b                   	pop    %ebx
 8049093:	5e                   	pop    %esi
 8049094:	c3                   	ret    

08049095 <fun9>:
 8049095:	53                   	push   %ebx
 8049096:	83 ec 08             	sub    $0x8,%esp
 8049099:	8b 54 24 10          	mov    0x10(%esp),%edx
 804909d:	8b 4c 24 14          	mov    0x14(%esp),%ecx
 80490a1:	85 d2                	test   %edx,%edx
 80490a3:	74 37                	je     80490dc <fun9+0x47>
 80490a5:	8b 1a                	mov    (%edx),%ebx
 80490a7:	39 cb                	cmp    %ecx,%ebx
 80490a9:	7e 13                	jle    80490be <fun9+0x29>
 80490ab:	83 ec 08             	sub    $0x8,%esp
 80490ae:	51                   	push   %ecx
 80490af:	ff 72 04             	pushl  0x4(%edx)
 80490b2:	e8 de ff ff ff       	call   8049095 <fun9>
 80490b7:	83 c4 10             	add    $0x10,%esp
 80490ba:	01 c0                	add    %eax,%eax
 80490bc:	eb 23                	jmp    80490e1 <fun9+0x4c>
 80490be:	b8 00 00 00 00       	mov    $0x0,%eax
 80490c3:	39 cb                	cmp    %ecx,%ebx
 80490c5:	74 1a                	je     80490e1 <fun9+0x4c>
 80490c7:	83 ec 08             	sub    $0x8,%esp
 80490ca:	51                   	push   %ecx
 80490cb:	ff 72 08             	pushl  0x8(%edx)
 80490ce:	e8 c2 ff ff ff       	call   8049095 <fun9>
 80490d3:	83 c4 10             	add    $0x10,%esp
 80490d6:	8d 44 00 01          	lea    0x1(%eax,%eax,1),%eax
 80490da:	eb 05                	jmp    80490e1 <fun9+0x4c>
 80490dc:	b8 ff ff ff ff       	mov    $0xffffffff,%eax
 80490e1:	83 c4 08             	add    $0x8,%esp
 80490e4:	5b                   	pop    %ebx
 80490e5:	c3                   	ret    

080490e6 <phase_9>:
 80490e6:	53                   	push   %ebx
 80490e7:	83 ec 0c             	sub    $0xc,%esp
 80490ea:	6a 0a                	push   $0xa
 80490ec:	6a 00                	push   $0x0
 80490ee:	ff 74 24 1c          	pushl  0x1c(%esp)
 80490f2:	e8 29 f8 ff ff       	call   8048920 <strtol@plt>
 80490f7:	89 c3                	mov    %eax,%ebx
 80490f9:	8d 40 ff             	lea    -0x1(%eax),%eax
 80490fc:	83 c4 10             	add    $0x10,%esp
 80490ff:	3d ec 03 00 00       	cmp    $0x3ec,%eax
 8049104:	76 05                	jbe    804910b <phase_9+0x25>
 8049106:	e8 72 03 00 00       	call   804947d <explode_bomb>
 804910b:	83 ec 08             	sub    $0x8,%esp
 804910e:	53                   	push   %ebx
 804910f:	68 a0 d0 04 08       	push   $0x804d0a0
 8049114:	e8 7c ff ff ff       	call   8049095 <fun9>
 8049119:	83 c4 10             	add    $0x10,%esp
 804911c:	83 f8 01             	cmp    $0x1,%eax
 804911f:	74 05                	je     8049126 <phase_9+0x40>
 8049121:	e8 57 03 00 00       	call   804947d <explode_bomb>
 8049126:	83 c4 08             	add    $0x8,%esp
 8049129:	5b                   	pop    %ebx
 804912a:	c3                   	ret    

0804912b <sig_handler>:
 804912b:	83 ec 18             	sub    $0x18,%esp
 804912e:	68 e4 a3 04 08       	push   $0x804a3e4
 8049133:	e8 18 f7 ff ff       	call   8048850 <puts@plt>
 8049138:	c7 04 24 03 00 00 00 	movl   $0x3,(%esp)
 804913f:	e8 9c f6 ff ff       	call   80487e0 <sleep@plt>
 8049144:	83 c4 08             	add    $0x8,%esp
 8049147:	68 41 a5 04 08       	push   $0x804a541
 804914c:	6a 01                	push   $0x1
 804914e:	e8 8d f7 ff ff       	call   80488e0 <__printf_chk@plt>
 8049153:	83 c4 04             	add    $0x4,%esp
 8049156:	ff 35 e4 d7 04 08    	pushl  0x804d7e4
 804915c:	e8 4f f6 ff ff       	call   80487b0 <fflush@plt>
 8049161:	c7 04 24 01 00 00 00 	movl   $0x1,(%esp)
 8049168:	e8 73 f6 ff ff       	call   80487e0 <sleep@plt>
 804916d:	c7 04 24 49 a5 04 08 	movl   $0x804a549,(%esp)
 8049174:	e8 d7 f6 ff ff       	call   8048850 <puts@plt>
 8049179:	c7 04 24 10 00 00 00 	movl   $0x10,(%esp)
 8049180:	e8 eb f6 ff ff       	call   8048870 <exit@plt>

08049185 <invalid_phase>:
 8049185:	83 ec 10             	sub    $0x10,%esp
 8049188:	ff 74 24 14          	pushl  0x14(%esp)
 804918c:	68 51 a5 04 08       	push   $0x804a551
 8049191:	6a 01                	push   $0x1
 8049193:	e8 48 f7 ff ff       	call   80488e0 <__printf_chk@plt>
 8049198:	c7 04 24 08 00 00 00 	movl   $0x8,(%esp)
 804919f:	e8 cc f6 ff ff       	call   8048870 <exit@plt>

080491a4 <string_length>:
 80491a4:	8b 54 24 04          	mov    0x4(%esp),%edx
 80491a8:	80 3a 00             	cmpb   $0x0,(%edx)
 80491ab:	74 10                	je     80491bd <string_length+0x19>
 80491ad:	b8 00 00 00 00       	mov    $0x0,%eax
 80491b2:	83 c0 01             	add    $0x1,%eax
 80491b5:	80 3c 02 00          	cmpb   $0x0,(%edx,%eax,1)
 80491b9:	75 f7                	jne    80491b2 <string_length+0xe>
 80491bb:	f3 c3                	repz ret 
 80491bd:	b8 00 00 00 00       	mov    $0x0,%eax
 80491c2:	c3                   	ret    

080491c3 <strings_not_equal>:
 80491c3:	57                   	push   %edi
 80491c4:	56                   	push   %esi
 80491c5:	53                   	push   %ebx
 80491c6:	8b 5c 24 10          	mov    0x10(%esp),%ebx
 80491ca:	8b 74 24 14          	mov    0x14(%esp),%esi
 80491ce:	53                   	push   %ebx
 80491cf:	e8 d0 ff ff ff       	call   80491a4 <string_length>
 80491d4:	89 c7                	mov    %eax,%edi
 80491d6:	89 34 24             	mov    %esi,(%esp)
 80491d9:	e8 c6 ff ff ff       	call   80491a4 <string_length>
 80491de:	83 c4 04             	add    $0x4,%esp
 80491e1:	ba 01 00 00 00       	mov    $0x1,%edx
 80491e6:	39 c7                	cmp    %eax,%edi
 80491e8:	75 38                	jne    8049222 <strings_not_equal+0x5f>
 80491ea:	0f b6 03             	movzbl (%ebx),%eax
 80491ed:	84 c0                	test   %al,%al
 80491ef:	74 1e                	je     804920f <strings_not_equal+0x4c>
 80491f1:	3a 06                	cmp    (%esi),%al
 80491f3:	74 06                	je     80491fb <strings_not_equal+0x38>
 80491f5:	eb 1f                	jmp    8049216 <strings_not_equal+0x53>
 80491f7:	3a 06                	cmp    (%esi),%al
 80491f9:	75 22                	jne    804921d <strings_not_equal+0x5a>
 80491fb:	83 c3 01             	add    $0x1,%ebx
 80491fe:	83 c6 01             	add    $0x1,%esi
 8049201:	0f b6 03             	movzbl (%ebx),%eax
 8049204:	84 c0                	test   %al,%al
 8049206:	75 ef                	jne    80491f7 <strings_not_equal+0x34>
 8049208:	ba 00 00 00 00       	mov    $0x0,%edx
 804920d:	eb 13                	jmp    8049222 <strings_not_equal+0x5f>
 804920f:	ba 00 00 00 00       	mov    $0x0,%edx
 8049214:	eb 0c                	jmp    8049222 <strings_not_equal+0x5f>
 8049216:	ba 01 00 00 00       	mov    $0x1,%edx
 804921b:	eb 05                	jmp    8049222 <strings_not_equal+0x5f>
 804921d:	ba 01 00 00 00       	mov    $0x1,%edx
 8049222:	89 d0                	mov    %edx,%eax
 8049224:	5b                   	pop    %ebx
 8049225:	5e                   	pop    %esi
 8049226:	5f                   	pop    %edi
 8049227:	c3                   	ret    

08049228 <initialize_bomb>:
 8049228:	56                   	push   %esi
 8049229:	53                   	push   %ebx
 804922a:	81 ec 5c 20 00 00    	sub    $0x205c,%esp
 8049230:	65 a1 14 00 00 00    	mov    %gs:0x14,%eax
 8049236:	89 84 24 54 20 00 00 	mov    %eax,0x2054(%esp)
 804923d:	31 c0                	xor    %eax,%eax
 804923f:	68 2b 91 04 08       	push   $0x804912b
 8049244:	6a 02                	push   $0x2
 8049246:	e8 85 f5 ff ff       	call   80487d0 <signal@plt>
 804924b:	83 c4 08             	add    $0x8,%esp
 804924e:	6a 40                	push   $0x40
 8049250:	8d 44 24 18          	lea    0x18(%esp),%eax
 8049254:	50                   	push   %eax
 8049255:	e8 c6 f5 ff ff       	call   8048820 <gethostname@plt>
 804925a:	83 c4 10             	add    $0x10,%esp
 804925d:	85 c0                	test   %eax,%eax
 804925f:	75 14                	jne    8049275 <initialize_bomb+0x4d>
 8049261:	a1 c0 d5 04 08       	mov    0x804d5c0,%eax
 8049266:	bb c4 d5 04 08       	mov    $0x804d5c4,%ebx
 804926b:	8d 74 24 0c          	lea    0xc(%esp),%esi
 804926f:	85 c0                	test   %eax,%eax
 8049271:	75 1b                	jne    804928e <initialize_bomb+0x66>
 8049273:	eb 56                	jmp    80492cb <initialize_bomb+0xa3>
 8049275:	83 ec 0c             	sub    $0xc,%esp
 8049278:	68 1c a4 04 08       	push   $0x804a41c
 804927d:	e8 ce f5 ff ff       	call   8048850 <puts@plt>
 8049282:	c7 04 24 08 00 00 00 	movl   $0x8,(%esp)
 8049289:	e8 e2 f5 ff ff       	call   8048870 <exit@plt>
 804928e:	83 ec 08             	sub    $0x8,%esp
 8049291:	56                   	push   %esi
 8049292:	50                   	push   %eax
 8049293:	e8 08 f6 ff ff       	call   80488a0 <strcasecmp@plt>
 8049298:	83 c4 10             	add    $0x10,%esp
 804929b:	85 c0                	test   %eax,%eax
 804929d:	74 45                	je     80492e4 <initialize_bomb+0xbc>
 804929f:	83 c3 04             	add    $0x4,%ebx
 80492a2:	8b 43 fc             	mov    -0x4(%ebx),%eax
 80492a5:	85 c0                	test   %eax,%eax
 80492a7:	75 e5                	jne    804928e <initialize_bomb+0x66>
 80492a9:	eb 20                	jmp    80492cb <initialize_bomb+0xa3>
 80492ab:	83 ec 04             	sub    $0x4,%esp
 80492ae:	8d 44 24 50          	lea    0x50(%esp),%eax
 80492b2:	50                   	push   %eax
 80492b3:	68 62 a5 04 08       	push   $0x804a562
 80492b8:	6a 01                	push   $0x1
 80492ba:	e8 21 f6 ff ff       	call   80488e0 <__printf_chk@plt>
 80492bf:	c7 04 24 08 00 00 00 	movl   $0x8,(%esp)
 80492c6:	e8 a5 f5 ff ff       	call   8048870 <exit@plt>
 80492cb:	83 ec 0c             	sub    $0xc,%esp
 80492ce:	68 54 a4 04 08       	push   $0x804a454
 80492d3:	e8 78 f5 ff ff       	call   8048850 <puts@plt>
 80492d8:	c7 04 24 08 00 00 00 	movl   $0x8,(%esp)
 80492df:	e8 8c f5 ff ff       	call   8048870 <exit@plt>
 80492e4:	83 ec 0c             	sub    $0xc,%esp
 80492e7:	8d 44 24 58          	lea    0x58(%esp),%eax
 80492eb:	50                   	push   %eax
 80492ec:	e8 29 0c 00 00       	call   8049f1a <init_driver>
 80492f1:	83 c4 10             	add    $0x10,%esp
 80492f4:	85 c0                	test   %eax,%eax
 80492f6:	78 b3                	js     80492ab <initialize_bomb+0x83>
 80492f8:	8b 84 24 4c 20 00 00 	mov    0x204c(%esp),%eax
 80492ff:	65 33 05 14 00 00 00 	xor    %gs:0x14,%eax
 8049306:	74 05                	je     804930d <initialize_bomb+0xe5>
 8049308:	e8 f3 f4 ff ff       	call   8048800 <__stack_chk_fail@plt>
 804930d:	81 c4 54 20 00 00    	add    $0x2054,%esp
 8049313:	5b                   	pop    %ebx
 8049314:	5e                   	pop    %esi
 8049315:	c3                   	ret    

08049316 <initialize_bomb_solve>:
 8049316:	f3 c3                	repz ret 

08049318 <blank_line>:
 8049318:	56                   	push   %esi
 8049319:	53                   	push   %ebx
 804931a:	83 ec 04             	sub    $0x4,%esp
 804931d:	8b 74 24 10          	mov    0x10(%esp),%esi
 8049321:	eb 14                	jmp    8049337 <blank_line+0x1f>
 8049323:	e8 28 f6 ff ff       	call   8048950 <__ctype_b_loc@plt>
 8049328:	83 c6 01             	add    $0x1,%esi
 804932b:	0f be db             	movsbl %bl,%ebx
 804932e:	8b 00                	mov    (%eax),%eax
 8049330:	f6 44 58 01 20       	testb  $0x20,0x1(%eax,%ebx,2)
 8049335:	74 0e                	je     8049345 <blank_line+0x2d>
 8049337:	0f b6 1e             	movzbl (%esi),%ebx
 804933a:	84 db                	test   %bl,%bl
 804933c:	75 e5                	jne    8049323 <blank_line+0xb>
 804933e:	b8 01 00 00 00       	mov    $0x1,%eax
 8049343:	eb 05                	jmp    804934a <blank_line+0x32>
 8049345:	b8 00 00 00 00       	mov    $0x0,%eax
 804934a:	83 c4 04             	add    $0x4,%esp
 804934d:	5b                   	pop    %ebx
 804934e:	5e                   	pop    %esi
 804934f:	c3                   	ret    

08049350 <skip>:
 8049350:	53                   	push   %ebx
 8049351:	83 ec 08             	sub    $0x8,%esp
 8049354:	83 ec 04             	sub    $0x4,%esp
 8049357:	ff 35 f0 d7 04 08    	pushl  0x804d7f0
 804935d:	6a 50                	push   $0x50
 804935f:	a1 ec d7 04 08       	mov    0x804d7ec,%eax
 8049364:	8d 04 80             	lea    (%eax,%eax,4),%eax
 8049367:	c1 e0 04             	shl    $0x4,%eax
 804936a:	05 00 d8 04 08       	add    $0x804d800,%eax
 804936f:	50                   	push   %eax
 8049370:	e8 4b f4 ff ff       	call   80487c0 <fgets@plt>
 8049375:	89 c3                	mov    %eax,%ebx
 8049377:	83 c4 10             	add    $0x10,%esp
 804937a:	85 c0                	test   %eax,%eax
 804937c:	74 10                	je     804938e <skip+0x3e>
 804937e:	83 ec 0c             	sub    $0xc,%esp
 8049381:	50                   	push   %eax
 8049382:	e8 91 ff ff ff       	call   8049318 <blank_line>
 8049387:	83 c4 10             	add    $0x10,%esp
 804938a:	85 c0                	test   %eax,%eax
 804938c:	75 c6                	jne    8049354 <skip+0x4>
 804938e:	89 d8                	mov    %ebx,%eax
 8049390:	83 c4 08             	add    $0x8,%esp
 8049393:	5b                   	pop    %ebx
 8049394:	c3                   	ret    

08049395 <send_msg>:
 8049395:	57                   	push   %edi
 8049396:	53                   	push   %ebx
 8049397:	81 ec 14 40 00 00    	sub    $0x4014,%esp
 804939d:	65 a1 14 00 00 00    	mov    %gs:0x14,%eax
 80493a3:	89 84 24 0c 40 00 00 	mov    %eax,0x400c(%esp)
 80493aa:	31 c0                	xor    %eax,%eax
 80493ac:	8b 1d ec d7 04 08    	mov    0x804d7ec,%ebx
 80493b2:	8d 54 9b fb          	lea    -0x5(%ebx,%ebx,4),%edx
 80493b6:	c1 e2 04             	shl    $0x4,%edx
 80493b9:	81 c2 00 d8 04 08    	add    $0x804d800,%edx
 80493bf:	b9 ff ff ff ff       	mov    $0xffffffff,%ecx
 80493c4:	89 d7                	mov    %edx,%edi
 80493c6:	f2 ae                	repnz scas %es:(%edi),%al
 80493c8:	f7 d1                	not    %ecx
 80493ca:	83 c1 63             	add    $0x63,%ecx
 80493cd:	81 f9 00 20 00 00    	cmp    $0x2000,%ecx
 80493d3:	76 1b                	jbe    80493f0 <send_msg+0x5b>
 80493d5:	83 ec 08             	sub    $0x8,%esp
 80493d8:	68 8c a4 04 08       	push   $0x804a48c
 80493dd:	6a 01                	push   $0x1
 80493df:	e8 fc f4 ff ff       	call   80488e0 <__printf_chk@plt>
 80493e4:	c7 04 24 08 00 00 00 	movl   $0x8,(%esp)
 80493eb:	e8 80 f4 ff ff       	call   8048870 <exit@plt>
 80493f0:	83 bc 24 20 40 00 00 	cmpl   $0x0,0x4020(%esp)
 80493f7:	00 
 80493f8:	b9 84 a5 04 08       	mov    $0x804a584,%ecx
 80493fd:	b8 7c a5 04 08       	mov    $0x804a57c,%eax
 8049402:	0f 44 c1             	cmove  %ecx,%eax
 8049405:	52                   	push   %edx
 8049406:	53                   	push   %ebx
 8049407:	50                   	push   %eax
 8049408:	ff 35 a0 d5 04 08    	pushl  0x804d5a0
 804940e:	68 8d a5 04 08       	push   $0x804a58d
 8049413:	68 00 20 00 00       	push   $0x2000
 8049418:	6a 01                	push   $0x1
 804941a:	8d 5c 24 28          	lea    0x28(%esp),%ebx
 804941e:	53                   	push   %ebx
 804941f:	e8 3c f5 ff ff       	call   8048960 <__sprintf_chk@plt>
 8049424:	83 c4 20             	add    $0x20,%esp
 8049427:	8d 84 24 0c 20 00 00 	lea    0x200c(%esp),%eax
 804942e:	50                   	push   %eax
 804942f:	6a 00                	push   $0x0
 8049431:	53                   	push   %ebx
 8049432:	68 a0 d1 04 08       	push   $0x804d1a0
 8049437:	e8 b0 0c 00 00       	call   804a0ec <driver_post>
 804943c:	83 c4 10             	add    $0x10,%esp
 804943f:	85 c0                	test   %eax,%eax
 8049441:	79 1c                	jns    804945f <send_msg+0xca>
 8049443:	83 ec 0c             	sub    $0xc,%esp
 8049446:	8d 84 24 18 20 00 00 	lea    0x2018(%esp),%eax
 804944d:	50                   	push   %eax
 804944e:	e8 fd f3 ff ff       	call   8048850 <puts@plt>
 8049453:	c7 04 24 00 00 00 00 	movl   $0x0,(%esp)
 804945a:	e8 11 f4 ff ff       	call   8048870 <exit@plt>
 804945f:	8b 84 24 0c 40 00 00 	mov    0x400c(%esp),%eax
 8049466:	65 33 05 14 00 00 00 	xor    %gs:0x14,%eax
 804946d:	74 05                	je     8049474 <send_msg+0xdf>
 804946f:	e8 8c f3 ff ff       	call   8048800 <__stack_chk_fail@plt>
 8049474:	81 c4 14 40 00 00    	add    $0x4014,%esp
 804947a:	5b                   	pop    %ebx
 804947b:	5f                   	pop    %edi
 804947c:	c3                   	ret    

0804947d <explode_bomb>:
 804947d:	83 ec 18             	sub    $0x18,%esp
 8049480:	68 99 a5 04 08       	push   $0x804a599
 8049485:	e8 c6 f3 ff ff       	call   8048850 <puts@plt>
 804948a:	c7 04 24 a2 a5 04 08 	movl   $0x804a5a2,(%esp)
 8049491:	e8 ba f3 ff ff       	call   8048850 <puts@plt>
 8049496:	c7 04 24 00 00 00 00 	movl   $0x0,(%esp)
 804949d:	e8 f3 fe ff ff       	call   8049395 <send_msg>
 80494a2:	c7 04 24 b0 a4 04 08 	movl   $0x804a4b0,(%esp)
 80494a9:	e8 a2 f3 ff ff       	call   8048850 <puts@plt>
 80494ae:	c7 04 24 08 00 00 00 	movl   $0x8,(%esp)
 80494b5:	e8 b6 f3 ff ff       	call   8048870 <exit@plt>

080494ba <read_six_numbers>:
 80494ba:	83 ec 0c             	sub    $0xc,%esp
 80494bd:	8b 44 24 14          	mov    0x14(%esp),%eax
 80494c1:	8d 50 14             	lea    0x14(%eax),%edx
 80494c4:	52                   	push   %edx
 80494c5:	8d 50 10             	lea    0x10(%eax),%edx
 80494c8:	52                   	push   %edx
 80494c9:	8d 50 0c             	lea    0xc(%eax),%edx
 80494cc:	52                   	push   %edx
 80494cd:	8d 50 08             	lea    0x8(%eax),%edx
 80494d0:	52                   	push   %edx
 80494d1:	8d 50 04             	lea    0x4(%eax),%edx
 80494d4:	52                   	push   %edx
 80494d5:	50                   	push   %eax
 80494d6:	68 b9 a5 04 08       	push   $0x804a5b9
 80494db:	ff 74 24 2c          	pushl  0x2c(%esp)
 80494df:	e8 cc f3 ff ff       	call   80488b0 <__isoc99_sscanf@plt>
 80494e4:	83 c4 20             	add    $0x20,%esp
 80494e7:	83 f8 05             	cmp    $0x5,%eax
 80494ea:	7f 05                	jg     80494f1 <read_six_numbers+0x37>
 80494ec:	e8 8c ff ff ff       	call   804947d <explode_bomb>
 80494f1:	83 c4 0c             	add    $0xc,%esp
 80494f4:	c3                   	ret    

080494f5 <read_line>:
 80494f5:	57                   	push   %edi
 80494f6:	56                   	push   %esi
 80494f7:	53                   	push   %ebx
 80494f8:	e8 53 fe ff ff       	call   8049350 <skip>
 80494fd:	85 c0                	test   %eax,%eax
 80494ff:	75 70                	jne    8049571 <read_line+0x7c>
 8049501:	a1 e0 d7 04 08       	mov    0x804d7e0,%eax
 8049506:	39 05 f0 d7 04 08    	cmp    %eax,0x804d7f0
 804950c:	75 19                	jne    8049527 <read_line+0x32>
 804950e:	83 ec 0c             	sub    $0xc,%esp
 8049511:	68 cb a5 04 08       	push   $0x804a5cb
 8049516:	e8 35 f3 ff ff       	call   8048850 <puts@plt>
 804951b:	c7 04 24 08 00 00 00 	movl   $0x8,(%esp)
 8049522:	e8 49 f3 ff ff       	call   8048870 <exit@plt>
 8049527:	83 ec 0c             	sub    $0xc,%esp
 804952a:	68 e9 a5 04 08       	push   $0x804a5e9
 804952f:	e8 fc f2 ff ff       	call   8048830 <getenv@plt>
 8049534:	83 c4 10             	add    $0x10,%esp
 8049537:	85 c0                	test   %eax,%eax
 8049539:	74 0a                	je     8049545 <read_line+0x50>
 804953b:	83 ec 0c             	sub    $0xc,%esp
 804953e:	6a 00                	push   $0x0
 8049540:	e8 2b f3 ff ff       	call   8048870 <exit@plt>
 8049545:	a1 e0 d7 04 08       	mov    0x804d7e0,%eax
 804954a:	a3 f0 d7 04 08       	mov    %eax,0x804d7f0
 804954f:	e8 fc fd ff ff       	call   8049350 <skip>
 8049554:	85 c0                	test   %eax,%eax
 8049556:	75 19                	jne    8049571 <read_line+0x7c>
 8049558:	83 ec 0c             	sub    $0xc,%esp
 804955b:	68 cb a5 04 08       	push   $0x804a5cb
 8049560:	e8 eb f2 ff ff       	call   8048850 <puts@plt>
 8049565:	c7 04 24 00 00 00 00 	movl   $0x0,(%esp)
 804956c:	e8 ff f2 ff ff       	call   8048870 <exit@plt>
 8049571:	8b 15 ec d7 04 08    	mov    0x804d7ec,%edx
 8049577:	8d 1c 92             	lea    (%edx,%edx,4),%ebx
 804957a:	c1 e3 04             	shl    $0x4,%ebx
 804957d:	81 c3 00 d8 04 08    	add    $0x804d800,%ebx
 8049583:	b8 00 00 00 00       	mov    $0x0,%eax
 8049588:	b9 ff ff ff ff       	mov    $0xffffffff,%ecx
 804958d:	89 df                	mov    %ebx,%edi
 804958f:	f2 ae                	repnz scas %es:(%edi),%al
 8049591:	f7 d1                	not    %ecx
 8049593:	83 e9 01             	sub    $0x1,%ecx
 8049596:	83 f9 4e             	cmp    $0x4e,%ecx
 8049599:	7e 36                	jle    80495d1 <read_line+0xdc>
 804959b:	83 ec 0c             	sub    $0xc,%esp
 804959e:	68 f4 a5 04 08       	push   $0x804a5f4
 80495a3:	e8 a8 f2 ff ff       	call   8048850 <puts@plt>
 80495a8:	a1 ec d7 04 08       	mov    0x804d7ec,%eax
 80495ad:	8d 50 01             	lea    0x1(%eax),%edx
 80495b0:	89 15 ec d7 04 08    	mov    %edx,0x804d7ec
 80495b6:	6b c0 50             	imul   $0x50,%eax,%eax
 80495b9:	05 00 d8 04 08       	add    $0x804d800,%eax
 80495be:	be 0f a6 04 08       	mov    $0x804a60f,%esi
 80495c3:	b9 04 00 00 00       	mov    $0x4,%ecx
 80495c8:	89 c7                	mov    %eax,%edi
 80495ca:	f3 a5                	rep movsl %ds:(%esi),%es:(%edi)
 80495cc:	e8 ac fe ff ff       	call   804947d <explode_bomb>
 80495d1:	8d 04 92             	lea    (%edx,%edx,4),%eax
 80495d4:	c1 e0 04             	shl    $0x4,%eax
 80495d7:	c6 84 01 ff d7 04 08 	movb   $0x0,0x804d7ff(%ecx,%eax,1)
 80495de:	00 
 80495df:	83 c2 01             	add    $0x1,%edx
 80495e2:	89 15 ec d7 04 08    	mov    %edx,0x804d7ec
 80495e8:	89 d8                	mov    %ebx,%eax
 80495ea:	5b                   	pop    %ebx
 80495eb:	5e                   	pop    %esi
 80495ec:	5f                   	pop    %edi
 80495ed:	c3                   	ret    

080495ee <phase_defused>:
 80495ee:	83 ec 18             	sub    $0x18,%esp
 80495f1:	6a 01                	push   $0x1
 80495f3:	e8 9d fd ff ff       	call   8049395 <send_msg>
 80495f8:	83 c4 10             	add    $0x10,%esp
 80495fb:	83 3d ec d7 04 08 09 	cmpl   $0x9,0x804d7ec
 8049602:	75 1c                	jne    8049620 <phase_defused+0x32>
 8049604:	83 ec 0c             	sub    $0xc,%esp
 8049607:	68 d4 a4 04 08       	push   $0x804a4d4
 804960c:	e8 3f f2 ff ff       	call   8048850 <puts@plt>
 8049611:	c7 04 24 00 a5 04 08 	movl   $0x804a500,(%esp)
 8049618:	e8 33 f2 ff ff       	call   8048850 <puts@plt>
 804961d:	83 c4 10             	add    $0x10,%esp
 8049620:	83 c4 0c             	add    $0xc,%esp
 8049623:	c3                   	ret    

08049624 <sigalrm_handler>:
 8049624:	83 ec 0c             	sub    $0xc,%esp
 8049627:	6a 00                	push   $0x0
 8049629:	68 cc a9 04 08       	push   $0x804a9cc
 804962e:	6a 01                	push   $0x1
 8049630:	ff 35 c0 d7 04 08    	pushl  0x804d7c0
 8049636:	e8 c5 f2 ff ff       	call   8048900 <__fprintf_chk@plt>
 804963b:	c7 04 24 01 00 00 00 	movl   $0x1,(%esp)
 8049642:	e8 29 f2 ff ff       	call   8048870 <exit@plt>

08049647 <rio_readlineb>:
 8049647:	55                   	push   %ebp
 8049648:	57                   	push   %edi
 8049649:	56                   	push   %esi
 804964a:	53                   	push   %ebx
 804964b:	83 ec 2c             	sub    $0x2c,%esp
 804964e:	89 d7                	mov    %edx,%edi
 8049650:	89 4c 24 0c          	mov    %ecx,0xc(%esp)
 8049654:	65 8b 15 14 00 00 00 	mov    %gs:0x14,%edx
 804965b:	89 54 24 1c          	mov    %edx,0x1c(%esp)
 804965f:	31 d2                	xor    %edx,%edx
 8049661:	83 f9 01             	cmp    $0x1,%ecx
 8049664:	76 79                	jbe    80496df <rio_readlineb+0x98>
 8049666:	89 c3                	mov    %eax,%ebx
 8049668:	89 4c 24 08          	mov    %ecx,0x8(%esp)
 804966c:	bd 01 00 00 00       	mov    $0x1,%ebp
 8049671:	8d 73 0c             	lea    0xc(%ebx),%esi
 8049674:	eb 2d                	jmp    80496a3 <rio_readlineb+0x5c>
 8049676:	83 ec 04             	sub    $0x4,%esp
 8049679:	68 00 20 00 00       	push   $0x2000
 804967e:	56                   	push   %esi
 804967f:	ff 33                	pushl  (%ebx)
 8049681:	e8 1a f1 ff ff       	call   80487a0 <read@plt>
 8049686:	89 43 04             	mov    %eax,0x4(%ebx)
 8049689:	83 c4 10             	add    $0x10,%esp
 804968c:	85 c0                	test   %eax,%eax
 804968e:	79 0c                	jns    804969c <rio_readlineb+0x55>
 8049690:	e8 3b f2 ff ff       	call   80488d0 <__errno_location@plt>
 8049695:	83 38 04             	cmpl   $0x4,(%eax)
 8049698:	74 09                	je     80496a3 <rio_readlineb+0x5c>
 804969a:	eb 62                	jmp    80496fe <rio_readlineb+0xb7>
 804969c:	85 c0                	test   %eax,%eax
 804969e:	74 63                	je     8049703 <rio_readlineb+0xbc>
 80496a0:	89 73 08             	mov    %esi,0x8(%ebx)
 80496a3:	8b 43 04             	mov    0x4(%ebx),%eax
 80496a6:	85 c0                	test   %eax,%eax
 80496a8:	7e cc                	jle    8049676 <rio_readlineb+0x2f>
 80496aa:	8b 4b 08             	mov    0x8(%ebx),%ecx
 80496ad:	0f b6 11             	movzbl (%ecx),%edx
 80496b0:	88 54 24 1b          	mov    %dl,0x1b(%esp)
 80496b4:	83 c1 01             	add    $0x1,%ecx
 80496b7:	89 4b 08             	mov    %ecx,0x8(%ebx)
 80496ba:	83 e8 01             	sub    $0x1,%eax
 80496bd:	89 43 04             	mov    %eax,0x4(%ebx)
 80496c0:	83 c7 01             	add    $0x1,%edi
 80496c3:	88 57 ff             	mov    %dl,-0x1(%edi)
 80496c6:	80 fa 0a             	cmp    $0xa,%dl
 80496c9:	75 09                	jne    80496d4 <rio_readlineb+0x8d>
 80496cb:	eb 1d                	jmp    80496ea <rio_readlineb+0xa3>
 80496cd:	83 fd 01             	cmp    $0x1,%ebp
 80496d0:	75 18                	jne    80496ea <rio_readlineb+0xa3>
 80496d2:	eb 1b                	jmp    80496ef <rio_readlineb+0xa8>
 80496d4:	83 c5 01             	add    $0x1,%ebp
 80496d7:	3b 6c 24 08          	cmp    0x8(%esp),%ebp
 80496db:	74 09                	je     80496e6 <rio_readlineb+0x9f>
 80496dd:	eb c4                	jmp    80496a3 <rio_readlineb+0x5c>
 80496df:	bd 01 00 00 00       	mov    $0x1,%ebp
 80496e4:	eb 04                	jmp    80496ea <rio_readlineb+0xa3>
 80496e6:	8b 6c 24 0c          	mov    0xc(%esp),%ebp
 80496ea:	c6 07 00             	movb   $0x0,(%edi)
 80496ed:	89 e8                	mov    %ebp,%eax
 80496ef:	8b 54 24 1c          	mov    0x1c(%esp),%edx
 80496f3:	65 33 15 14 00 00 00 	xor    %gs:0x14,%edx
 80496fa:	74 17                	je     8049713 <rio_readlineb+0xcc>
 80496fc:	eb 10                	jmp    804970e <rio_readlineb+0xc7>
 80496fe:	b8 ff ff ff ff       	mov    $0xffffffff,%eax
 8049703:	85 c0                	test   %eax,%eax
 8049705:	74 c6                	je     80496cd <rio_readlineb+0x86>
 8049707:	b8 ff ff ff ff       	mov    $0xffffffff,%eax
 804970c:	eb e1                	jmp    80496ef <rio_readlineb+0xa8>
 804970e:	e8 ed f0 ff ff       	call   8048800 <__stack_chk_fail@plt>
 8049713:	83 c4 2c             	add    $0x2c,%esp
 8049716:	5b                   	pop    %ebx
 8049717:	5e                   	pop    %esi
 8049718:	5f                   	pop    %edi
 8049719:	5d                   	pop    %ebp
 804971a:	c3                   	ret    

0804971b <submitr>:
 804971b:	55                   	push   %ebp
 804971c:	57                   	push   %edi
 804971d:	56                   	push   %esi
 804971e:	53                   	push   %ebx
 804971f:	81 ec 60 a0 00 00    	sub    $0xa060,%esp
 8049725:	8b b4 24 74 a0 00 00 	mov    0xa074(%esp),%esi
 804972c:	8b 84 24 7c a0 00 00 	mov    0xa07c(%esp),%eax
 8049733:	89 44 24 10          	mov    %eax,0x10(%esp)
 8049737:	8b 84 24 80 a0 00 00 	mov    0xa080(%esp),%eax
 804973e:	89 44 24 14          	mov    %eax,0x14(%esp)
 8049742:	8b 84 24 84 a0 00 00 	mov    0xa084(%esp),%eax
 8049749:	89 44 24 18          	mov    %eax,0x18(%esp)
 804974d:	8b 9c 24 88 a0 00 00 	mov    0xa088(%esp),%ebx
 8049754:	8b 84 24 8c a0 00 00 	mov    0xa08c(%esp),%eax
 804975b:	89 44 24 1c          	mov    %eax,0x1c(%esp)
 804975f:	65 a1 14 00 00 00    	mov    %gs:0x14,%eax
 8049765:	89 84 24 50 a0 00 00 	mov    %eax,0xa050(%esp)
 804976c:	31 c0                	xor    %eax,%eax
 804976e:	c7 44 24 30 00 00 00 	movl   $0x0,0x30(%esp)
 8049775:	00 
 8049776:	6a 00                	push   $0x0
 8049778:	6a 01                	push   $0x1
 804977a:	6a 02                	push   $0x2
 804977c:	e8 6f f1 ff ff       	call   80488f0 <socket@plt>
 8049781:	89 44 24 18          	mov    %eax,0x18(%esp)
 8049785:	83 c4 10             	add    $0x10,%esp
 8049788:	85 c0                	test   %eax,%eax
 804978a:	79 52                	jns    80497de <submitr+0xc3>
 804978c:	8b 44 24 18          	mov    0x18(%esp),%eax
 8049790:	c7 00 45 72 72 6f    	movl   $0x6f727245,(%eax)
 8049796:	c7 40 04 72 3a 20 43 	movl   $0x43203a72,0x4(%eax)
 804979d:	c7 40 08 6c 69 65 6e 	movl   $0x6e65696c,0x8(%eax)
 80497a4:	c7 40 0c 74 20 75 6e 	movl   $0x6e752074,0xc(%eax)
 80497ab:	c7 40 10 61 62 6c 65 	movl   $0x656c6261,0x10(%eax)
 80497b2:	c7 40 14 20 74 6f 20 	movl   $0x206f7420,0x14(%eax)
 80497b9:	c7 40 18 63 72 65 61 	movl   $0x61657263,0x18(%eax)
 80497c0:	c7 40 1c 74 65 20 73 	movl   $0x73206574,0x1c(%eax)
 80497c7:	c7 40 20 6f 63 6b 65 	movl   $0x656b636f,0x20(%eax)
 80497ce:	66 c7 40 24 74 00    	movw   $0x74,0x24(%eax)
 80497d4:	b8 ff ff ff ff       	mov    $0xffffffff,%eax
 80497d9:	e9 3f 06 00 00       	jmp    8049e1d <submitr+0x702>
 80497de:	83 ec 0c             	sub    $0xc,%esp
 80497e1:	56                   	push   %esi
 80497e2:	e8 29 f1 ff ff       	call   8048910 <gethostbyname@plt>
 80497e7:	83 c4 10             	add    $0x10,%esp
 80497ea:	85 c0                	test   %eax,%eax
 80497ec:	75 73                	jne    8049861 <submitr+0x146>
 80497ee:	8b 44 24 18          	mov    0x18(%esp),%eax
 80497f2:	c7 00 45 72 72 6f    	movl   $0x6f727245,(%eax)
 80497f8:	c7 40 04 72 3a 20 44 	movl   $0x44203a72,0x4(%eax)
 80497ff:	c7 40 08 4e 53 20 69 	movl   $0x6920534e,0x8(%eax)
 8049806:	c7 40 0c 73 20 75 6e 	movl   $0x6e752073,0xc(%eax)
 804980d:	c7 40 10 61 62 6c 65 	movl   $0x656c6261,0x10(%eax)
 8049814:	c7 40 14 20 74 6f 20 	movl   $0x206f7420,0x14(%eax)
 804981b:	c7 40 18 72 65 73 6f 	movl   $0x6f736572,0x18(%eax)
 8049822:	c7 40 1c 6c 76 65 20 	movl   $0x2065766c,0x1c(%eax)
 8049829:	c7 40 20 73 65 72 76 	movl   $0x76726573,0x20(%eax)
 8049830:	c7 40 24 65 72 20 61 	movl   $0x61207265,0x24(%eax)
 8049837:	c7 40 28 64 64 72 65 	movl   $0x65726464,0x28(%eax)
 804983e:	66 c7 40 2c 73 73    	movw   $0x7373,0x2c(%eax)
 8049844:	c6 40 2e 00          	movb   $0x0,0x2e(%eax)
 8049848:	83 ec 0c             	sub    $0xc,%esp
 804984b:	ff 74 24 14          	pushl  0x14(%esp)
 804984f:	e8 ec f0 ff ff       	call   8048940 <close@plt>
 8049854:	83 c4 10             	add    $0x10,%esp
 8049857:	b8 ff ff ff ff       	mov    $0xffffffff,%eax
 804985c:	e9 bc 05 00 00       	jmp    8049e1d <submitr+0x702>
 8049861:	8d 74 24 30          	lea    0x30(%esp),%esi
 8049865:	c7 44 24 30 00 00 00 	movl   $0x0,0x30(%esp)
 804986c:	00 
 804986d:	c7 44 24 34 00 00 00 	movl   $0x0,0x34(%esp)
 8049874:	00 
 8049875:	c7 44 24 38 00 00 00 	movl   $0x0,0x38(%esp)
 804987c:	00 
 804987d:	c7 44 24 3c 00 00 00 	movl   $0x0,0x3c(%esp)
 8049884:	00 
 8049885:	66 c7 44 24 30 02 00 	movw   $0x2,0x30(%esp)
 804988c:	6a 0c                	push   $0xc
 804988e:	ff 70 0c             	pushl  0xc(%eax)
 8049891:	8b 40 10             	mov    0x10(%eax),%eax
 8049894:	ff 30                	pushl  (%eax)
 8049896:	8d 44 24 40          	lea    0x40(%esp),%eax
 804989a:	50                   	push   %eax
 804989b:	e8 c0 ef ff ff       	call   8048860 <__memmove_chk@plt>
 80498a0:	0f b7 84 24 84 a0 00 	movzwl 0xa084(%esp),%eax
 80498a7:	00 
 80498a8:	66 c1 c8 08          	ror    $0x8,%ax
 80498ac:	66 89 44 24 42       	mov    %ax,0x42(%esp)
 80498b1:	83 c4 0c             	add    $0xc,%esp
 80498b4:	6a 10                	push   $0x10
 80498b6:	56                   	push   %esi
 80498b7:	ff 74 24 14          	pushl  0x14(%esp)
 80498bb:	e8 70 f0 ff ff       	call   8048930 <connect@plt>
 80498c0:	83 c4 10             	add    $0x10,%esp
 80498c3:	85 c0                	test   %eax,%eax
 80498c5:	79 65                	jns    804992c <submitr+0x211>
 80498c7:	8b 44 24 18          	mov    0x18(%esp),%eax
 80498cb:	c7 00 45 72 72 6f    	movl   $0x6f727245,(%eax)
 80498d1:	c7 40 04 72 3a 20 55 	movl   $0x55203a72,0x4(%eax)
 80498d8:	c7 40 08 6e 61 62 6c 	movl   $0x6c62616e,0x8(%eax)
 80498df:	c7 40 0c 65 20 74 6f 	movl   $0x6f742065,0xc(%eax)
 80498e6:	c7 40 10 20 63 6f 6e 	movl   $0x6e6f6320,0x10(%eax)
 80498ed:	c7 40 14 6e 65 63 74 	movl   $0x7463656e,0x14(%eax)
 80498f4:	c7 40 18 20 74 6f 20 	movl   $0x206f7420,0x18(%eax)
 80498fb:	c7 40 1c 74 68 65 20 	movl   $0x20656874,0x1c(%eax)
 8049902:	c7 40 20 73 65 72 76 	movl   $0x76726573,0x20(%eax)
 8049909:	66 c7 40 24 65 72    	movw   $0x7265,0x24(%eax)
 804990f:	c6 40 26 00          	movb   $0x0,0x26(%eax)
 8049913:	83 ec 0c             	sub    $0xc,%esp
 8049916:	ff 74 24 14          	pushl  0x14(%esp)
 804991a:	e8 21 f0 ff ff       	call   8048940 <close@plt>
 804991f:	83 c4 10             	add    $0x10,%esp
 8049922:	b8 ff ff ff ff       	mov    $0xffffffff,%eax
 8049927:	e9 f1 04 00 00       	jmp    8049e1d <submitr+0x702>
 804992c:	be ff ff ff ff       	mov    $0xffffffff,%esi
 8049931:	b8 00 00 00 00       	mov    $0x0,%eax
 8049936:	89 f1                	mov    %esi,%ecx
 8049938:	89 df                	mov    %ebx,%edi
 804993a:	f2 ae                	repnz scas %es:(%edi),%al
 804993c:	f7 d1                	not    %ecx
 804993e:	89 cd                	mov    %ecx,%ebp
 8049940:	89 f1                	mov    %esi,%ecx
 8049942:	8b 7c 24 0c          	mov    0xc(%esp),%edi
 8049946:	f2 ae                	repnz scas %es:(%edi),%al
 8049948:	89 4c 24 1c          	mov    %ecx,0x1c(%esp)
 804994c:	89 f1                	mov    %esi,%ecx
 804994e:	8b 7c 24 10          	mov    0x10(%esp),%edi
 8049952:	f2 ae                	repnz scas %es:(%edi),%al
 8049954:	89 ca                	mov    %ecx,%edx
 8049956:	f7 d2                	not    %edx
 8049958:	89 f1                	mov    %esi,%ecx
 804995a:	8b 7c 24 14          	mov    0x14(%esp),%edi
 804995e:	f2 ae                	repnz scas %es:(%edi),%al
 8049960:	2b 54 24 1c          	sub    0x1c(%esp),%edx
 8049964:	29 ca                	sub    %ecx,%edx
 8049966:	8d 44 6d fd          	lea    -0x3(%ebp,%ebp,2),%eax
 804996a:	8d 44 02 7b          	lea    0x7b(%edx,%eax,1),%eax
 804996e:	3d 00 20 00 00       	cmp    $0x2000,%eax
 8049973:	76 7e                	jbe    80499f3 <submitr+0x2d8>
 8049975:	8b 44 24 18          	mov    0x18(%esp),%eax
 8049979:	c7 00 45 72 72 6f    	movl   $0x6f727245,(%eax)
 804997f:	c7 40 04 72 3a 20 52 	movl   $0x52203a72,0x4(%eax)
 8049986:	c7 40 08 65 73 75 6c 	movl   $0x6c757365,0x8(%eax)
 804998d:	c7 40 0c 74 20 73 74 	movl   $0x74732074,0xc(%eax)
 8049994:	c7 40 10 72 69 6e 67 	movl   $0x676e6972,0x10(%eax)
 804999b:	c7 40 14 20 74 6f 6f 	movl   $0x6f6f7420,0x14(%eax)
 80499a2:	c7 40 18 20 6c 61 72 	movl   $0x72616c20,0x18(%eax)
 80499a9:	c7 40 1c 67 65 2e 20 	movl   $0x202e6567,0x1c(%eax)
 80499b0:	c7 40 20 49 6e 63 72 	movl   $0x72636e49,0x20(%eax)
 80499b7:	c7 40 24 65 61 73 65 	movl   $0x65736165,0x24(%eax)
 80499be:	c7 40 28 20 53 55 42 	movl   $0x42555320,0x28(%eax)
 80499c5:	c7 40 2c 4d 49 54 52 	movl   $0x5254494d,0x2c(%eax)
 80499cc:	c7 40 30 5f 4d 41 58 	movl   $0x58414d5f,0x30(%eax)
 80499d3:	c7 40 34 42 55 46 00 	movl   $0x465542,0x34(%eax)
 80499da:	83 ec 0c             	sub    $0xc,%esp
 80499dd:	ff 74 24 14          	pushl  0x14(%esp)
 80499e1:	e8 5a ef ff ff       	call   8048940 <close@plt>
 80499e6:	83 c4 10             	add    $0x10,%esp
 80499e9:	b8 ff ff ff ff       	mov    $0xffffffff,%eax
 80499ee:	e9 2a 04 00 00       	jmp    8049e1d <submitr+0x702>
 80499f3:	8d 94 24 4c 40 00 00 	lea    0x404c(%esp),%edx
 80499fa:	b9 00 08 00 00       	mov    $0x800,%ecx
 80499ff:	b8 00 00 00 00       	mov    $0x0,%eax
 8049a04:	89 d7                	mov    %edx,%edi
 8049a06:	f3 ab                	rep stos %eax,%es:(%edi)
 8049a08:	b9 ff ff ff ff       	mov    $0xffffffff,%ecx
 8049a0d:	89 df                	mov    %ebx,%edi
 8049a0f:	f2 ae                	repnz scas %es:(%edi),%al
 8049a11:	f7 d1                	not    %ecx
 8049a13:	89 ce                	mov    %ecx,%esi
 8049a15:	83 ee 01             	sub    $0x1,%esi
 8049a18:	0f 84 5c 04 00 00    	je     8049e7a <submitr+0x75f>
 8049a1e:	89 d5                	mov    %edx,%ebp
 8049a20:	bf d9 ff 00 00       	mov    $0xffd9,%edi
 8049a25:	0f b6 13             	movzbl (%ebx),%edx
 8049a28:	8d 4a d6             	lea    -0x2a(%edx),%ecx
 8049a2b:	b8 01 00 00 00       	mov    $0x1,%eax
 8049a30:	80 f9 0f             	cmp    $0xf,%cl
 8049a33:	77 0a                	ja     8049a3f <submitr+0x324>
 8049a35:	89 f8                	mov    %edi,%eax
 8049a37:	d3 e8                	shr    %cl,%eax
 8049a39:	83 f0 01             	xor    $0x1,%eax
 8049a3c:	83 e0 01             	and    $0x1,%eax
 8049a3f:	80 fa 5f             	cmp    $0x5f,%dl
 8049a42:	0f 94 c1             	sete   %cl
 8049a45:	38 c1                	cmp    %al,%cl
 8049a47:	73 0c                	jae    8049a55 <submitr+0x33a>
 8049a49:	89 d0                	mov    %edx,%eax
 8049a4b:	83 e0 df             	and    $0xffffffdf,%eax
 8049a4e:	83 e8 41             	sub    $0x41,%eax
 8049a51:	3c 19                	cmp    $0x19,%al
 8049a53:	77 08                	ja     8049a5d <submitr+0x342>
 8049a55:	88 55 00             	mov    %dl,0x0(%ebp)
 8049a58:	8d 6d 01             	lea    0x1(%ebp),%ebp
 8049a5b:	eb 62                	jmp    8049abf <submitr+0x3a4>
 8049a5d:	80 fa 20             	cmp    $0x20,%dl
 8049a60:	75 09                	jne    8049a6b <submitr+0x350>
 8049a62:	c6 45 00 2b          	movb   $0x2b,0x0(%ebp)
 8049a66:	8d 6d 01             	lea    0x1(%ebp),%ebp
 8049a69:	eb 54                	jmp    8049abf <submitr+0x3a4>
 8049a6b:	8d 42 e0             	lea    -0x20(%edx),%eax
 8049a6e:	3c 5f                	cmp    $0x5f,%al
 8049a70:	76 09                	jbe    8049a7b <submitr+0x360>
 8049a72:	80 fa 09             	cmp    $0x9,%dl
 8049a75:	0f 85 bb 03 00 00    	jne    8049e36 <submitr+0x71b>
 8049a7b:	83 ec 0c             	sub    $0xc,%esp
 8049a7e:	0f b6 d2             	movzbl %dl,%edx
 8049a81:	52                   	push   %edx
 8049a82:	68 d8 aa 04 08       	push   $0x804aad8
 8049a87:	6a 08                	push   $0x8
 8049a89:	6a 01                	push   $0x1
 8049a8b:	8d 84 24 68 80 00 00 	lea    0x8068(%esp),%eax
 8049a92:	50                   	push   %eax
 8049a93:	e8 c8 ee ff ff       	call   8048960 <__sprintf_chk@plt>
 8049a98:	0f b6 84 24 6c 80 00 	movzbl 0x806c(%esp),%eax
 8049a9f:	00 
 8049aa0:	88 45 00             	mov    %al,0x0(%ebp)
 8049aa3:	0f b6 84 24 6d 80 00 	movzbl 0x806d(%esp),%eax
 8049aaa:	00 
 8049aab:	88 45 01             	mov    %al,0x1(%ebp)
 8049aae:	0f b6 84 24 6e 80 00 	movzbl 0x806e(%esp),%eax
 8049ab5:	00 
 8049ab6:	88 45 02             	mov    %al,0x2(%ebp)
 8049ab9:	83 c4 20             	add    $0x20,%esp
 8049abc:	8d 6d 03             	lea    0x3(%ebp),%ebp
 8049abf:	83 c3 01             	add    $0x1,%ebx
 8049ac2:	83 ee 01             	sub    $0x1,%esi
 8049ac5:	0f 85 5a ff ff ff    	jne    8049a25 <submitr+0x30a>
 8049acb:	e9 aa 03 00 00       	jmp    8049e7a <submitr+0x75f>
 8049ad0:	83 ec 04             	sub    $0x4,%esp
 8049ad3:	53                   	push   %ebx
 8049ad4:	56                   	push   %esi
 8049ad5:	55                   	push   %ebp
 8049ad6:	e8 b5 ed ff ff       	call   8048890 <write@plt>
 8049adb:	83 c4 10             	add    $0x10,%esp
 8049ade:	85 c0                	test   %eax,%eax
 8049ae0:	7f 0f                	jg     8049af1 <submitr+0x3d6>
 8049ae2:	e8 e9 ed ff ff       	call   80488d0 <__errno_location@plt>
 8049ae7:	83 38 04             	cmpl   $0x4,(%eax)
 8049aea:	75 0f                	jne    8049afb <submitr+0x3e0>
 8049aec:	b8 00 00 00 00       	mov    $0x0,%eax
 8049af1:	01 c6                	add    %eax,%esi
 8049af3:	29 c3                	sub    %eax,%ebx
 8049af5:	75 d9                	jne    8049ad0 <submitr+0x3b5>
 8049af7:	85 ff                	test   %edi,%edi
 8049af9:	79 69                	jns    8049b64 <submitr+0x449>
 8049afb:	8b 44 24 18          	mov    0x18(%esp),%eax
 8049aff:	c7 00 45 72 72 6f    	movl   $0x6f727245,(%eax)
 8049b05:	c7 40 04 72 3a 20 43 	movl   $0x43203a72,0x4(%eax)
 8049b0c:	c7 40 08 6c 69 65 6e 	movl   $0x6e65696c,0x8(%eax)
 8049b13:	c7 40 0c 74 20 75 6e 	movl   $0x6e752074,0xc(%eax)
 8049b1a:	c7 40 10 61 62 6c 65 	movl   $0x656c6261,0x10(%eax)
 8049b21:	c7 40 14 20 74 6f 20 	movl   $0x206f7420,0x14(%eax)
 8049b28:	c7 40 18 77 72 69 74 	movl   $0x74697277,0x18(%eax)
 8049b2f:	c7 40 1c 65 20 74 6f 	movl   $0x6f742065,0x1c(%eax)
 8049b36:	c7 40 20 20 74 68 65 	movl   $0x65687420,0x20(%eax)
 8049b3d:	c7 40 24 20 73 65 72 	movl   $0x72657320,0x24(%eax)
 8049b44:	c7 40 28 76 65 72 00 	movl   $0x726576,0x28(%eax)
 8049b4b:	83 ec 0c             	sub    $0xc,%esp
 8049b4e:	ff 74 24 14          	pushl  0x14(%esp)
 8049b52:	e8 e9 ed ff ff       	call   8048940 <close@plt>
 8049b57:	83 c4 10             	add    $0x10,%esp
 8049b5a:	b8 ff ff ff ff       	mov    $0xffffffff,%eax
 8049b5f:	e9 b9 02 00 00       	jmp    8049e1d <submitr+0x702>
 8049b64:	8b 44 24 08          	mov    0x8(%esp),%eax
 8049b68:	89 44 24 40          	mov    %eax,0x40(%esp)
 8049b6c:	c7 44 24 44 00 00 00 	movl   $0x0,0x44(%esp)
 8049b73:	00 
 8049b74:	8d 44 24 4c          	lea    0x4c(%esp),%eax
 8049b78:	89 44 24 48          	mov    %eax,0x48(%esp)
 8049b7c:	b9 00 20 00 00       	mov    $0x2000,%ecx
 8049b81:	8d 94 24 4c 20 00 00 	lea    0x204c(%esp),%edx
 8049b88:	8d 44 24 40          	lea    0x40(%esp),%eax
 8049b8c:	e8 b6 fa ff ff       	call   8049647 <rio_readlineb>
 8049b91:	85 c0                	test   %eax,%eax
 8049b93:	7f 7d                	jg     8049c12 <submitr+0x4f7>
 8049b95:	8b 44 24 18          	mov    0x18(%esp),%eax
 8049b99:	c7 00 45 72 72 6f    	movl   $0x6f727245,(%eax)
 8049b9f:	c7 40 04 72 3a 20 43 	movl   $0x43203a72,0x4(%eax)
 8049ba6:	c7 40 08 6c 69 65 6e 	movl   $0x6e65696c,0x8(%eax)
 8049bad:	c7 40 0c 74 20 75 6e 	movl   $0x6e752074,0xc(%eax)
 8049bb4:	c7 40 10 61 62 6c 65 	movl   $0x656c6261,0x10(%eax)
 8049bbb:	c7 40 14 20 74 6f 20 	movl   $0x206f7420,0x14(%eax)
 8049bc2:	c7 40 18 72 65 61 64 	movl   $0x64616572,0x18(%eax)
 8049bc9:	c7 40 1c 20 66 69 72 	movl   $0x72696620,0x1c(%eax)
 8049bd0:	c7 40 20 73 74 20 68 	movl   $0x68207473,0x20(%eax)
 8049bd7:	c7 40 24 65 61 64 65 	movl   $0x65646165,0x24(%eax)
 8049bde:	c7 40 28 72 20 66 72 	movl   $0x72662072,0x28(%eax)
 8049be5:	c7 40 2c 6f 6d 20 73 	movl   $0x73206d6f,0x2c(%eax)
 8049bec:	c7 40 30 65 72 76 65 	movl   $0x65767265,0x30(%eax)
 8049bf3:	66 c7 40 34 72 00    	movw   $0x72,0x34(%eax)
 8049bf9:	83 ec 0c             	sub    $0xc,%esp
 8049bfc:	ff 74 24 14          	pushl  0x14(%esp)
 8049c00:	e8 3b ed ff ff       	call   8048940 <close@plt>
 8049c05:	83 c4 10             	add    $0x10,%esp
 8049c08:	b8 ff ff ff ff       	mov    $0xffffffff,%eax
 8049c0d:	e9 0b 02 00 00       	jmp    8049e1d <submitr+0x702>
 8049c12:	83 ec 0c             	sub    $0xc,%esp
 8049c15:	8d 84 24 58 80 00 00 	lea    0x8058(%esp),%eax
 8049c1c:	50                   	push   %eax
 8049c1d:	8d 44 24 3c          	lea    0x3c(%esp),%eax
 8049c21:	50                   	push   %eax
 8049c22:	8d 84 24 60 60 00 00 	lea    0x6060(%esp),%eax
 8049c29:	50                   	push   %eax
 8049c2a:	68 df aa 04 08       	push   $0x804aadf
 8049c2f:	8d 84 24 68 20 00 00 	lea    0x2068(%esp),%eax
 8049c36:	50                   	push   %eax
 8049c37:	e8 74 ec ff ff       	call   80488b0 <__isoc99_sscanf@plt>
 8049c3c:	8b 44 24 4c          	mov    0x4c(%esp),%eax
 8049c40:	83 c4 20             	add    $0x20,%esp
 8049c43:	3d c8 00 00 00       	cmp    $0xc8,%eax
 8049c48:	0f 84 c4 00 00 00    	je     8049d12 <submitr+0x5f7>
 8049c4e:	83 ec 08             	sub    $0x8,%esp
 8049c51:	8d 94 24 54 80 00 00 	lea    0x8054(%esp),%edx
 8049c58:	52                   	push   %edx
 8049c59:	50                   	push   %eax
 8049c5a:	68 f0 a9 04 08       	push   $0x804a9f0
 8049c5f:	6a ff                	push   $0xffffffff
 8049c61:	6a 01                	push   $0x1
 8049c63:	ff 74 24 34          	pushl  0x34(%esp)
 8049c67:	e8 f4 ec ff ff       	call   8048960 <__sprintf_chk@plt>
 8049c6c:	83 c4 14             	add    $0x14,%esp
 8049c6f:	ff 74 24 14          	pushl  0x14(%esp)
 8049c73:	e8 c8 ec ff ff       	call   8048940 <close@plt>
 8049c78:	83 c4 10             	add    $0x10,%esp
 8049c7b:	b8 ff ff ff ff       	mov    $0xffffffff,%eax
 8049c80:	e9 98 01 00 00       	jmp    8049e1d <submitr+0x702>
 8049c85:	b9 00 20 00 00       	mov    $0x2000,%ecx
 8049c8a:	8d 94 24 4c 20 00 00 	lea    0x204c(%esp),%edx
 8049c91:	8d 44 24 40          	lea    0x40(%esp),%eax
 8049c95:	e8 ad f9 ff ff       	call   8049647 <rio_readlineb>
 8049c9a:	85 c0                	test   %eax,%eax
 8049c9c:	7f 74                	jg     8049d12 <submitr+0x5f7>
 8049c9e:	8b 44 24 18          	mov    0x18(%esp),%eax
 8049ca2:	c7 00 45 72 72 6f    	movl   $0x6f727245,(%eax)
 8049ca8:	c7 40 04 72 3a 20 43 	movl   $0x43203a72,0x4(%eax)
 8049caf:	c7 40 08 6c 69 65 6e 	movl   $0x6e65696c,0x8(%eax)
 8049cb6:	c7 40 0c 74 20 75 6e 	movl   $0x6e752074,0xc(%eax)
 8049cbd:	c7 40 10 61 62 6c 65 	movl   $0x656c6261,0x10(%eax)
 8049cc4:	c7 40 14 20 74 6f 20 	movl   $0x206f7420,0x14(%eax)
 8049ccb:	c7 40 18 72 65 61 64 	movl   $0x64616572,0x18(%eax)
 8049cd2:	c7 40 1c 20 68 65 61 	movl   $0x61656820,0x1c(%eax)
 8049cd9:	c7 40 20 64 65 72 73 	movl   $0x73726564,0x20(%eax)
 8049ce0:	c7 40 24 20 66 72 6f 	movl   $0x6f726620,0x24(%eax)
 8049ce7:	c7 40 28 6d 20 73 65 	movl   $0x6573206d,0x28(%eax)
 8049cee:	c7 40 2c 72 76 65 72 	movl   $0x72657672,0x2c(%eax)
 8049cf5:	c6 40 30 00          	movb   $0x0,0x30(%eax)
 8049cf9:	83 ec 0c             	sub    $0xc,%esp
 8049cfc:	ff 74 24 14          	pushl  0x14(%esp)
 8049d00:	e8 3b ec ff ff       	call   8048940 <close@plt>
 8049d05:	83 c4 10             	add    $0x10,%esp
 8049d08:	b8 ff ff ff ff       	mov    $0xffffffff,%eax
 8049d0d:	e9 0b 01 00 00       	jmp    8049e1d <submitr+0x702>
 8049d12:	80 bc 24 4c 20 00 00 	cmpb   $0xd,0x204c(%esp)
 8049d19:	0d 
 8049d1a:	0f 85 65 ff ff ff    	jne    8049c85 <submitr+0x56a>
 8049d20:	80 bc 24 4d 20 00 00 	cmpb   $0xa,0x204d(%esp)
 8049d27:	0a 
 8049d28:	0f 85 57 ff ff ff    	jne    8049c85 <submitr+0x56a>
 8049d2e:	80 bc 24 4e 20 00 00 	cmpb   $0x0,0x204e(%esp)
 8049d35:	00 
 8049d36:	0f 85 49 ff ff ff    	jne    8049c85 <submitr+0x56a>
 8049d3c:	b9 00 20 00 00       	mov    $0x2000,%ecx
 8049d41:	8d 94 24 4c 20 00 00 	lea    0x204c(%esp),%edx
 8049d48:	8d 44 24 40          	lea    0x40(%esp),%eax
 8049d4c:	e8 f6 f8 ff ff       	call   8049647 <rio_readlineb>
 8049d51:	85 c0                	test   %eax,%eax
 8049d53:	7f 7b                	jg     8049dd0 <submitr+0x6b5>
 8049d55:	8b 44 24 18          	mov    0x18(%esp),%eax
 8049d59:	c7 00 45 72 72 6f    	movl   $0x6f727245,(%eax)
 8049d5f:	c7 40 04 72 3a 20 43 	movl   $0x43203a72,0x4(%eax)
 8049d66:	c7 40 08 6c 69 65 6e 	movl   $0x6e65696c,0x8(%eax)
 8049d6d:	c7 40 0c 74 20 75 6e 	movl   $0x6e752074,0xc(%eax)
 8049d74:	c7 40 10 61 62 6c 65 	movl   $0x656c6261,0x10(%eax)
 8049d7b:	c7 40 14 20 74 6f 20 	movl   $0x206f7420,0x14(%eax)
 8049d82:	c7 40 18 72 65 61 64 	movl   $0x64616572,0x18(%eax)
 8049d89:	c7 40 1c 20 73 74 61 	movl   $0x61747320,0x1c(%eax)
 8049d90:	c7 40 20 74 75 73 20 	movl   $0x20737574,0x20(%eax)
 8049d97:	c7 40 24 6d 65 73 73 	movl   $0x7373656d,0x24(%eax)
 8049d9e:	c7 40 28 61 67 65 20 	movl   $0x20656761,0x28(%eax)
 8049da5:	c7 40 2c 66 72 6f 6d 	movl   $0x6d6f7266,0x2c(%eax)
 8049dac:	c7 40 30 20 73 65 72 	movl   $0x72657320,0x30(%eax)
 8049db3:	c7 40 34 76 65 72 00 	movl   $0x726576,0x34(%eax)
 8049dba:	83 ec 0c             	sub    $0xc,%esp
 8049dbd:	ff 74 24 14          	pushl  0x14(%esp)
 8049dc1:	e8 7a eb ff ff       	call   8048940 <close@plt>
 8049dc6:	83 c4 10             	add    $0x10,%esp
 8049dc9:	b8 ff ff ff ff       	mov    $0xffffffff,%eax
 8049dce:	eb 4d                	jmp    8049e1d <submitr+0x702>
 8049dd0:	83 ec 08             	sub    $0x8,%esp
 8049dd3:	8d 84 24 54 20 00 00 	lea    0x2054(%esp),%eax
 8049dda:	50                   	push   %eax
 8049ddb:	8b 7c 24 24          	mov    0x24(%esp),%edi
 8049ddf:	57                   	push   %edi
 8049de0:	e8 2b ea ff ff       	call   8048810 <strcpy@plt>
 8049de5:	83 c4 04             	add    $0x4,%esp
 8049de8:	ff 74 24 14          	pushl  0x14(%esp)
 8049dec:	e8 4f eb ff ff       	call   8048940 <close@plt>
 8049df1:	0f b6 17             	movzbl (%edi),%edx
 8049df4:	b8 4f 00 00 00       	mov    $0x4f,%eax
 8049df9:	83 c4 10             	add    $0x10,%esp
 8049dfc:	29 d0                	sub    %edx,%eax
 8049dfe:	75 13                	jne    8049e13 <submitr+0x6f8>
 8049e00:	0f b6 57 01          	movzbl 0x1(%edi),%edx
 8049e04:	b8 4b 00 00 00       	mov    $0x4b,%eax
 8049e09:	29 d0                	sub    %edx,%eax
 8049e0b:	75 06                	jne    8049e13 <submitr+0x6f8>
 8049e0d:	0f b6 47 02          	movzbl 0x2(%edi),%eax
 8049e11:	f7 d8                	neg    %eax
 8049e13:	85 c0                	test   %eax,%eax
 8049e15:	0f 95 c0             	setne  %al
 8049e18:	0f b6 c0             	movzbl %al,%eax
 8049e1b:	f7 d8                	neg    %eax
 8049e1d:	8b bc 24 4c a0 00 00 	mov    0xa04c(%esp),%edi
 8049e24:	65 33 3d 14 00 00 00 	xor    %gs:0x14,%edi
 8049e2b:	0f 84 a9 00 00 00    	je     8049eda <submitr+0x7bf>
 8049e31:	e9 9f 00 00 00       	jmp    8049ed5 <submitr+0x7ba>
 8049e36:	a1 20 aa 04 08       	mov    0x804aa20,%eax
 8049e3b:	8b 7c 24 18          	mov    0x18(%esp),%edi
 8049e3f:	89 07                	mov    %eax,(%edi)
 8049e41:	a1 5f aa 04 08       	mov    0x804aa5f,%eax
 8049e46:	89 47 3f             	mov    %eax,0x3f(%edi)
 8049e49:	89 f8                	mov    %edi,%eax
 8049e4b:	83 c7 04             	add    $0x4,%edi
 8049e4e:	83 e7 fc             	and    $0xfffffffc,%edi
 8049e51:	29 f8                	sub    %edi,%eax
 8049e53:	be 20 aa 04 08       	mov    $0x804aa20,%esi
 8049e58:	29 c6                	sub    %eax,%esi
 8049e5a:	83 c0 43             	add    $0x43,%eax
 8049e5d:	c1 e8 02             	shr    $0x2,%eax
 8049e60:	89 c1                	mov    %eax,%ecx
 8049e62:	f3 a5                	rep movsl %ds:(%esi),%es:(%edi)
 8049e64:	83 ec 0c             	sub    $0xc,%esp
 8049e67:	ff 74 24 14          	pushl  0x14(%esp)
 8049e6b:	e8 d0 ea ff ff       	call   8048940 <close@plt>
 8049e70:	83 c4 10             	add    $0x10,%esp
 8049e73:	b8 ff ff ff ff       	mov    $0xffffffff,%eax
 8049e78:	eb a3                	jmp    8049e1d <submitr+0x702>
 8049e7a:	8d 84 24 4c 40 00 00 	lea    0x404c(%esp),%eax
 8049e81:	50                   	push   %eax
 8049e82:	ff 74 24 18          	pushl  0x18(%esp)
 8049e86:	ff 74 24 18          	pushl  0x18(%esp)
 8049e8a:	ff 74 24 18          	pushl  0x18(%esp)
 8049e8e:	68 64 aa 04 08       	push   $0x804aa64
 8049e93:	68 00 20 00 00       	push   $0x2000
 8049e98:	6a 01                	push   $0x1
 8049e9a:	8d bc 24 68 20 00 00 	lea    0x2068(%esp),%edi
 8049ea1:	57                   	push   %edi
 8049ea2:	e8 b9 ea ff ff       	call   8048960 <__sprintf_chk@plt>
 8049ea7:	b8 00 00 00 00       	mov    $0x0,%eax
 8049eac:	b9 ff ff ff ff       	mov    $0xffffffff,%ecx
 8049eb1:	f2 ae                	repnz scas %es:(%edi),%al
 8049eb3:	f7 d1                	not    %ecx
 8049eb5:	8d 79 ff             	lea    -0x1(%ecx),%edi
 8049eb8:	83 c4 20             	add    $0x20,%esp
 8049ebb:	89 fb                	mov    %edi,%ebx
 8049ebd:	8d b4 24 4c 20 00 00 	lea    0x204c(%esp),%esi
 8049ec4:	8b 6c 24 08          	mov    0x8(%esp),%ebp
 8049ec8:	85 ff                	test   %edi,%edi
 8049eca:	0f 85 00 fc ff ff    	jne    8049ad0 <submitr+0x3b5>
 8049ed0:	e9 8f fc ff ff       	jmp    8049b64 <submitr+0x449>
 8049ed5:	e8 26 e9 ff ff       	call   8048800 <__stack_chk_fail@plt>
 8049eda:	81 c4 5c a0 00 00    	add    $0xa05c,%esp
 8049ee0:	5b                   	pop    %ebx
 8049ee1:	5e                   	pop    %esi
 8049ee2:	5f                   	pop    %edi
 8049ee3:	5d                   	pop    %ebp
 8049ee4:	c3                   	ret    

08049ee5 <init_timeout>:
 8049ee5:	53                   	push   %ebx
 8049ee6:	83 ec 08             	sub    $0x8,%esp
 8049ee9:	8b 5c 24 10          	mov    0x10(%esp),%ebx
 8049eed:	85 db                	test   %ebx,%ebx
 8049eef:	74 24                	je     8049f15 <init_timeout+0x30>
 8049ef1:	83 ec 08             	sub    $0x8,%esp
 8049ef4:	68 24 96 04 08       	push   $0x8049624
 8049ef9:	6a 0e                	push   $0xe
 8049efb:	e8 d0 e8 ff ff       	call   80487d0 <signal@plt>
 8049f00:	85 db                	test   %ebx,%ebx
 8049f02:	b8 00 00 00 00       	mov    $0x0,%eax
 8049f07:	0f 48 d8             	cmovs  %eax,%ebx
 8049f0a:	89 1c 24             	mov    %ebx,(%esp)
 8049f0d:	e8 de e8 ff ff       	call   80487f0 <alarm@plt>
 8049f12:	83 c4 10             	add    $0x10,%esp
 8049f15:	83 c4 08             	add    $0x8,%esp
 8049f18:	5b                   	pop    %ebx
 8049f19:	c3                   	ret    

08049f1a <init_driver>:
 8049f1a:	57                   	push   %edi
 8049f1b:	56                   	push   %esi
 8049f1c:	53                   	push   %ebx
 8049f1d:	83 ec 28             	sub    $0x28,%esp
 8049f20:	8b 74 24 38          	mov    0x38(%esp),%esi
 8049f24:	65 a1 14 00 00 00    	mov    %gs:0x14,%eax
 8049f2a:	89 44 24 24          	mov    %eax,0x24(%esp)
 8049f2e:	31 c0                	xor    %eax,%eax
 8049f30:	6a 01                	push   $0x1
 8049f32:	6a 0d                	push   $0xd
 8049f34:	e8 97 e8 ff ff       	call   80487d0 <signal@plt>
 8049f39:	83 c4 08             	add    $0x8,%esp
 8049f3c:	6a 01                	push   $0x1
 8049f3e:	6a 1d                	push   $0x1d
 8049f40:	e8 8b e8 ff ff       	call   80487d0 <signal@plt>
 8049f45:	83 c4 08             	add    $0x8,%esp
 8049f48:	6a 01                	push   $0x1
 8049f4a:	6a 1d                	push   $0x1d
 8049f4c:	e8 7f e8 ff ff       	call   80487d0 <signal@plt>
 8049f51:	83 c4 0c             	add    $0xc,%esp
 8049f54:	6a 00                	push   $0x0
 8049f56:	6a 01                	push   $0x1
 8049f58:	6a 02                	push   $0x2
 8049f5a:	e8 91 e9 ff ff       	call   80488f0 <socket@plt>
 8049f5f:	83 c4 10             	add    $0x10,%esp
 8049f62:	85 c0                	test   %eax,%eax
 8049f64:	79 4e                	jns    8049fb4 <init_driver+0x9a>
 8049f66:	c7 06 45 72 72 6f    	movl   $0x6f727245,(%esi)
 8049f6c:	c7 46 04 72 3a 20 43 	movl   $0x43203a72,0x4(%esi)
 8049f73:	c7 46 08 6c 69 65 6e 	movl   $0x6e65696c,0x8(%esi)
 8049f7a:	c7 46 0c 74 20 75 6e 	movl   $0x6e752074,0xc(%esi)
 8049f81:	c7 46 10 61 62 6c 65 	movl   $0x656c6261,0x10(%esi)
 8049f88:	c7 46 14 20 74 6f 20 	movl   $0x206f7420,0x14(%esi)
 8049f8f:	c7 46 18 63 72 65 61 	movl   $0x61657263,0x18(%esi)
 8049f96:	c7 46 1c 74 65 20 73 	movl   $0x73206574,0x1c(%esi)
 8049f9d:	c7 46 20 6f 63 6b 65 	movl   $0x656b636f,0x20(%esi)
 8049fa4:	66 c7 46 24 74 00    	movw   $0x74,0x24(%esi)
 8049faa:	b8 ff ff ff ff       	mov    $0xffffffff,%eax
 8049faf:	e9 1f 01 00 00       	jmp    804a0d3 <init_driver+0x1b9>
 8049fb4:	89 c3                	mov    %eax,%ebx
 8049fb6:	83 ec 0c             	sub    $0xc,%esp
 8049fb9:	68 f0 aa 04 08       	push   $0x804aaf0
 8049fbe:	e8 4d e9 ff ff       	call   8048910 <gethostbyname@plt>
 8049fc3:	83 c4 10             	add    $0x10,%esp
 8049fc6:	85 c0                	test   %eax,%eax
 8049fc8:	75 6c                	jne    804a036 <init_driver+0x11c>
 8049fca:	c7 06 45 72 72 6f    	movl   $0x6f727245,(%esi)
 8049fd0:	c7 46 04 72 3a 20 44 	movl   $0x44203a72,0x4(%esi)
 8049fd7:	c7 46 08 4e 53 20 69 	movl   $0x6920534e,0x8(%esi)
 8049fde:	c7 46 0c 73 20 75 6e 	movl   $0x6e752073,0xc(%esi)
 8049fe5:	c7 46 10 61 62 6c 65 	movl   $0x656c6261,0x10(%esi)
 8049fec:	c7 46 14 20 74 6f 20 	movl   $0x206f7420,0x14(%esi)
 8049ff3:	c7 46 18 72 65 73 6f 	movl   $0x6f736572,0x18(%esi)
 8049ffa:	c7 46 1c 6c 76 65 20 	movl   $0x2065766c,0x1c(%esi)
 804a001:	c7 46 20 73 65 72 76 	movl   $0x76726573,0x20(%esi)
 804a008:	c7 46 24 65 72 20 61 	movl   $0x61207265,0x24(%esi)
 804a00f:	c7 46 28 64 64 72 65 	movl   $0x65726464,0x28(%esi)
 804a016:	66 c7 46 2c 73 73    	movw   $0x7373,0x2c(%esi)
 804a01c:	c6 46 2e 00          	movb   $0x0,0x2e(%esi)
 804a020:	83 ec 0c             	sub    $0xc,%esp
 804a023:	53                   	push   %ebx
 804a024:	e8 17 e9 ff ff       	call   8048940 <close@plt>
 804a029:	83 c4 10             	add    $0x10,%esp
 804a02c:	b8 ff ff ff ff       	mov    $0xffffffff,%eax
 804a031:	e9 9d 00 00 00       	jmp    804a0d3 <init_driver+0x1b9>
 804a036:	8d 7c 24 0c          	lea    0xc(%esp),%edi
 804a03a:	c7 44 24 0c 00 00 00 	movl   $0x0,0xc(%esp)
 804a041:	00 
 804a042:	c7 44 24 10 00 00 00 	movl   $0x0,0x10(%esp)
 804a049:	00 
 804a04a:	c7 44 24 14 00 00 00 	movl   $0x0,0x14(%esp)
 804a051:	00 
 804a052:	c7 44 24 18 00 00 00 	movl   $0x0,0x18(%esp)
 804a059:	00 
 804a05a:	66 c7 44 24 0c 02 00 	movw   $0x2,0xc(%esp)
 804a061:	6a 0c                	push   $0xc
 804a063:	ff 70 0c             	pushl  0xc(%eax)
 804a066:	8b 40 10             	mov    0x10(%eax),%eax
 804a069:	ff 30                	pushl  (%eax)
 804a06b:	8d 44 24 1c          	lea    0x1c(%esp),%eax
 804a06f:	50                   	push   %eax
 804a070:	e8 eb e7 ff ff       	call   8048860 <__memmove_chk@plt>
 804a075:	66 c7 44 24 1e 43 31 	movw   $0x3143,0x1e(%esp)
 804a07c:	83 c4 0c             	add    $0xc,%esp
 804a07f:	6a 10                	push   $0x10
 804a081:	57                   	push   %edi
 804a082:	53                   	push   %ebx
 804a083:	e8 a8 e8 ff ff       	call   8048930 <connect@plt>
 804a088:	83 c4 10             	add    $0x10,%esp
 804a08b:	85 c0                	test   %eax,%eax
 804a08d:	79 2a                	jns    804a0b9 <init_driver+0x19f>
 804a08f:	83 ec 0c             	sub    $0xc,%esp
 804a092:	68 f0 aa 04 08       	push   $0x804aaf0
 804a097:	68 b0 aa 04 08       	push   $0x804aab0
 804a09c:	6a ff                	push   $0xffffffff
 804a09e:	6a 01                	push   $0x1
 804a0a0:	56                   	push   %esi
 804a0a1:	e8 ba e8 ff ff       	call   8048960 <__sprintf_chk@plt>
 804a0a6:	83 c4 14             	add    $0x14,%esp
 804a0a9:	53                   	push   %ebx
 804a0aa:	e8 91 e8 ff ff       	call   8048940 <close@plt>
 804a0af:	83 c4 10             	add    $0x10,%esp
 804a0b2:	b8 ff ff ff ff       	mov    $0xffffffff,%eax
 804a0b7:	eb 1a                	jmp    804a0d3 <init_driver+0x1b9>
 804a0b9:	83 ec 0c             	sub    $0xc,%esp
 804a0bc:	53                   	push   %ebx
 804a0bd:	e8 7e e8 ff ff       	call   8048940 <close@plt>
 804a0c2:	66 c7 06 4f 4b       	movw   $0x4b4f,(%esi)
 804a0c7:	c6 46 02 00          	movb   $0x0,0x2(%esi)
 804a0cb:	83 c4 10             	add    $0x10,%esp
 804a0ce:	b8 00 00 00 00       	mov    $0x0,%eax
 804a0d3:	8b 54 24 1c          	mov    0x1c(%esp),%edx
 804a0d7:	65 33 15 14 00 00 00 	xor    %gs:0x14,%edx
 804a0de:	74 05                	je     804a0e5 <init_driver+0x1cb>
 804a0e0:	e8 1b e7 ff ff       	call   8048800 <__stack_chk_fail@plt>
 804a0e5:	83 c4 20             	add    $0x20,%esp
 804a0e8:	5b                   	pop    %ebx
 804a0e9:	5e                   	pop    %esi
 804a0ea:	5f                   	pop    %edi
 804a0eb:	c3                   	ret    

0804a0ec <driver_post>:
 804a0ec:	53                   	push   %ebx
 804a0ed:	83 ec 08             	sub    $0x8,%esp
 804a0f0:	8b 44 24 10          	mov    0x10(%esp),%eax
 804a0f4:	8b 5c 24 1c          	mov    0x1c(%esp),%ebx
 804a0f8:	83 7c 24 18 00       	cmpl   $0x0,0x18(%esp)
 804a0fd:	74 26                	je     804a125 <driver_post+0x39>
 804a0ff:	83 ec 04             	sub    $0x4,%esp
 804a102:	ff 74 24 18          	pushl  0x18(%esp)
 804a106:	68 04 ab 04 08       	push   $0x804ab04
 804a10b:	6a 01                	push   $0x1
 804a10d:	e8 ce e7 ff ff       	call   80488e0 <__printf_chk@plt>
 804a112:	66 c7 03 4f 4b       	movw   $0x4b4f,(%ebx)
 804a117:	c6 43 02 00          	movb   $0x0,0x2(%ebx)
 804a11b:	83 c4 10             	add    $0x10,%esp
 804a11e:	b8 00 00 00 00       	mov    $0x0,%eax
 804a123:	eb 3e                	jmp    804a163 <driver_post+0x77>
 804a125:	85 c0                	test   %eax,%eax
 804a127:	74 2c                	je     804a155 <driver_post+0x69>
 804a129:	80 38 00             	cmpb   $0x0,(%eax)
 804a12c:	74 27                	je     804a155 <driver_post+0x69>
 804a12e:	83 ec 04             	sub    $0x4,%esp
 804a131:	53                   	push   %ebx
 804a132:	ff 74 24 1c          	pushl  0x1c(%esp)
 804a136:	68 1b ab 04 08       	push   $0x804ab1b
 804a13b:	50                   	push   %eax
 804a13c:	68 22 ab 04 08       	push   $0x804ab22
 804a141:	68 31 43 00 00       	push   $0x4331
 804a146:	68 f0 aa 04 08       	push   $0x804aaf0
 804a14b:	e8 cb f5 ff ff       	call   804971b <submitr>
 804a150:	83 c4 20             	add    $0x20,%esp
 804a153:	eb 0e                	jmp    804a163 <driver_post+0x77>
 804a155:	66 c7 03 4f 4b       	movw   $0x4b4f,(%ebx)
 804a15a:	c6 43 02 00          	movb   $0x0,0x2(%ebx)
 804a15e:	b8 00 00 00 00       	mov    $0x0,%eax
 804a163:	83 c4 08             	add    $0x8,%esp
 804a166:	5b                   	pop    %ebx
 804a167:	c3                   	ret    
 804a168:	66 90                	xchg   %ax,%ax
 804a16a:	66 90                	xchg   %ax,%ax
 804a16c:	66 90                	xchg   %ax,%ax
 804a16e:	66 90                	xchg   %ax,%ax

0804a170 <__libc_csu_init>:
 804a170:	55                   	push   %ebp
 804a171:	57                   	push   %edi
 804a172:	56                   	push   %esi
 804a173:	53                   	push   %ebx
 804a174:	e8 37 e8 ff ff       	call   80489b0 <__x86.get_pc_thunk.bx>
 804a179:	81 c3 87 2e 00 00    	add    $0x2e87,%ebx
 804a17f:	83 ec 0c             	sub    $0xc,%esp
 804a182:	8b 6c 24 20          	mov    0x20(%esp),%ebp
 804a186:	8d b3 0c ff ff ff    	lea    -0xf4(%ebx),%esi
 804a18c:	e8 cf e5 ff ff       	call   8048760 <_init>
 804a191:	8d 83 08 ff ff ff    	lea    -0xf8(%ebx),%eax
 804a197:	29 c6                	sub    %eax,%esi
 804a199:	c1 fe 02             	sar    $0x2,%esi
 804a19c:	85 f6                	test   %esi,%esi
 804a19e:	74 25                	je     804a1c5 <__libc_csu_init+0x55>
 804a1a0:	31 ff                	xor    %edi,%edi
 804a1a2:	8d b6 00 00 00 00    	lea    0x0(%esi),%esi
 804a1a8:	83 ec 04             	sub    $0x4,%esp
 804a1ab:	ff 74 24 2c          	pushl  0x2c(%esp)
 804a1af:	ff 74 24 2c          	pushl  0x2c(%esp)
 804a1b3:	55                   	push   %ebp
 804a1b4:	ff 94 bb 08 ff ff ff 	call   *-0xf8(%ebx,%edi,4)
 804a1bb:	83 c7 01             	add    $0x1,%edi
 804a1be:	83 c4 10             	add    $0x10,%esp
 804a1c1:	39 f7                	cmp    %esi,%edi
 804a1c3:	75 e3                	jne    804a1a8 <__libc_csu_init+0x38>
 804a1c5:	83 c4 0c             	add    $0xc,%esp
 804a1c8:	5b                   	pop    %ebx
 804a1c9:	5e                   	pop    %esi
 804a1ca:	5f                   	pop    %edi
 804a1cb:	5d                   	pop    %ebp
 804a1cc:	c3                   	ret    
 804a1cd:	8d 76 00             	lea    0x0(%esi),%esi

0804a1d0 <__libc_csu_fini>:
 804a1d0:	f3 c3                	repz ret 

Disassembly of section .fini:

0804a1d4 <_fini>:
 804a1d4:	53                   	push   %ebx
 804a1d5:	83 ec 08             	sub    $0x8,%esp
 804a1d8:	e8 d3 e7 ff ff       	call   80489b0 <__x86.get_pc_thunk.bx>
 804a1dd:	81 c3 23 2e 00 00    	add    $0x2e23,%ebx
 804a1e3:	83 c4 08             	add    $0x8,%esp
 804a1e6:	5b                   	pop    %ebx
 804a1e7:	c3                   	ret    
